
kernel/kernel.elf:     file format elf64-littleriscv


Disassembly of section .text:

0000000080000000 <_entry>:
    80000000:	00002117          	auipc	sp,0x2
    80000004:	10010113          	addi	sp,sp,256 # 80002100 <stack0>
    80000008:	6505                	lui	a0,0x1
    8000000a:	f14025f3          	csrr	a1,mhartid
    8000000e:	0585                	addi	a1,a1,1
    80000010:	02b50533          	mul	a0,a0,a1
    80000014:	912a                	add	sp,sp,a0
    80000016:	00000097          	auipc	ra,0x0
    8000001a:	272080e7          	jalr	626(ra) # 80000288 <start>

000000008000001e <spin>:
    8000001e:	a001                	j	8000001e <spin>

0000000080000020 <kernelvec>:
    80000020:	7111                	addi	sp,sp,-256
    80000022:	e006                	sd	ra,0(sp)
    80000024:	e40a                	sd	sp,8(sp)
    80000026:	e80e                	sd	gp,16(sp)
    80000028:	ec12                	sd	tp,24(sp)
    8000002a:	f016                	sd	t0,32(sp)
    8000002c:	f41a                	sd	t1,40(sp)
    8000002e:	f81e                	sd	t2,48(sp)
    80000030:	e4aa                	sd	a0,72(sp)
    80000032:	e8ae                	sd	a1,80(sp)
    80000034:	ecb2                	sd	a2,88(sp)
    80000036:	f0b6                	sd	a3,96(sp)
    80000038:	f4ba                	sd	a4,104(sp)
    8000003a:	f8be                	sd	a5,112(sp)
    8000003c:	fcc2                	sd	a6,120(sp)
    8000003e:	e146                	sd	a7,128(sp)
    80000040:	edf2                	sd	t3,216(sp)
    80000042:	f1f6                	sd	t4,224(sp)
    80000044:	f5fa                	sd	t5,232(sp)
    80000046:	f9fe                	sd	t6,240(sp)
    80000048:	00000097          	auipc	ra,0x0
    8000004c:	662080e7          	jalr	1634(ra) # 800006aa <kerneltrap>
    80000050:	6082                	ld	ra,0(sp)
    80000052:	6122                	ld	sp,8(sp)
    80000054:	61c2                	ld	gp,16(sp)
    80000056:	7282                	ld	t0,32(sp)
    80000058:	7322                	ld	t1,40(sp)
    8000005a:	73c2                	ld	t2,48(sp)
    8000005c:	6526                	ld	a0,72(sp)
    8000005e:	65c6                	ld	a1,80(sp)
    80000060:	6666                	ld	a2,88(sp)
    80000062:	7686                	ld	a3,96(sp)
    80000064:	7726                	ld	a4,104(sp)
    80000066:	77c6                	ld	a5,112(sp)
    80000068:	7866                	ld	a6,120(sp)
    8000006a:	688a                	ld	a7,128(sp)
    8000006c:	6e6e                	ld	t3,216(sp)
    8000006e:	7e8e                	ld	t4,224(sp)
    80000070:	7f2e                	ld	t5,232(sp)
    80000072:	7fce                	ld	t6,240(sp)
    80000074:	6111                	addi	sp,sp,256
    80000076:	10200073          	sret
    8000007a:	00000013          	nop
    8000007e:	0001                	nop

0000000080000080 <timervec>:
    80000080:	34051573          	csrrw	a0,mscratch,a0
    80000084:	e10c                	sd	a1,0(a0)
    80000086:	e510                	sd	a2,8(a0)
    80000088:	e914                	sd	a3,16(a0)
    8000008a:	6d0c                	ld	a1,24(a0)
    8000008c:	7110                	ld	a2,32(a0)
    8000008e:	6194                	ld	a3,0(a1)
    80000090:	96b2                	add	a3,a3,a2
    80000092:	e194                	sd	a3,0(a1)
    80000094:	4589                	li	a1,2
    80000096:	14459073          	csrw	sip,a1
    8000009a:	6914                	ld	a3,16(a0)
    8000009c:	6510                	ld	a2,8(a0)
    8000009e:	610c                	ld	a1,0(a0)
    800000a0:	34051573          	csrrw	a0,mscratch,a0
    800000a4:	30200073          	mret
	...

00000000800000aa <r_mhartid>:
    800000aa:	1101                	addi	sp,sp,-32
    800000ac:	ec06                	sd	ra,24(sp)
    800000ae:	e822                	sd	s0,16(sp)
    800000b0:	1000                	addi	s0,sp,32
    800000b2:	f14027f3          	csrr	a5,mhartid
    800000b6:	fef43423          	sd	a5,-24(s0)
    800000ba:	fe843783          	ld	a5,-24(s0)
    800000be:	853e                	mv	a0,a5
    800000c0:	60e2                	ld	ra,24(sp)
    800000c2:	6442                	ld	s0,16(sp)
    800000c4:	6105                	addi	sp,sp,32
    800000c6:	8082                	ret

00000000800000c8 <r_mstatus>:
    800000c8:	1101                	addi	sp,sp,-32
    800000ca:	ec06                	sd	ra,24(sp)
    800000cc:	e822                	sd	s0,16(sp)
    800000ce:	1000                	addi	s0,sp,32
    800000d0:	300027f3          	csrr	a5,mstatus
    800000d4:	fef43423          	sd	a5,-24(s0)
    800000d8:	fe843783          	ld	a5,-24(s0)
    800000dc:	853e                	mv	a0,a5
    800000de:	60e2                	ld	ra,24(sp)
    800000e0:	6442                	ld	s0,16(sp)
    800000e2:	6105                	addi	sp,sp,32
    800000e4:	8082                	ret

00000000800000e6 <w_mstatus>:
    800000e6:	1101                	addi	sp,sp,-32
    800000e8:	ec06                	sd	ra,24(sp)
    800000ea:	e822                	sd	s0,16(sp)
    800000ec:	1000                	addi	s0,sp,32
    800000ee:	fea43423          	sd	a0,-24(s0)
    800000f2:	fe843783          	ld	a5,-24(s0)
    800000f6:	30079073          	csrw	mstatus,a5
    800000fa:	0001                	nop
    800000fc:	60e2                	ld	ra,24(sp)
    800000fe:	6442                	ld	s0,16(sp)
    80000100:	6105                	addi	sp,sp,32
    80000102:	8082                	ret

0000000080000104 <w_mepc>:
    80000104:	1101                	addi	sp,sp,-32
    80000106:	ec06                	sd	ra,24(sp)
    80000108:	e822                	sd	s0,16(sp)
    8000010a:	1000                	addi	s0,sp,32
    8000010c:	fea43423          	sd	a0,-24(s0)
    80000110:	fe843783          	ld	a5,-24(s0)
    80000114:	34179073          	csrw	mepc,a5
    80000118:	0001                	nop
    8000011a:	60e2                	ld	ra,24(sp)
    8000011c:	6442                	ld	s0,16(sp)
    8000011e:	6105                	addi	sp,sp,32
    80000120:	8082                	ret

0000000080000122 <r_sie>:
    80000122:	1101                	addi	sp,sp,-32
    80000124:	ec06                	sd	ra,24(sp)
    80000126:	e822                	sd	s0,16(sp)
    80000128:	1000                	addi	s0,sp,32
    8000012a:	104027f3          	csrr	a5,sie
    8000012e:	fef43423          	sd	a5,-24(s0)
    80000132:	fe843783          	ld	a5,-24(s0)
    80000136:	853e                	mv	a0,a5
    80000138:	60e2                	ld	ra,24(sp)
    8000013a:	6442                	ld	s0,16(sp)
    8000013c:	6105                	addi	sp,sp,32
    8000013e:	8082                	ret

0000000080000140 <w_sie>:
    80000140:	1101                	addi	sp,sp,-32
    80000142:	ec06                	sd	ra,24(sp)
    80000144:	e822                	sd	s0,16(sp)
    80000146:	1000                	addi	s0,sp,32
    80000148:	fea43423          	sd	a0,-24(s0)
    8000014c:	fe843783          	ld	a5,-24(s0)
    80000150:	10479073          	csrw	sie,a5
    80000154:	0001                	nop
    80000156:	60e2                	ld	ra,24(sp)
    80000158:	6442                	ld	s0,16(sp)
    8000015a:	6105                	addi	sp,sp,32
    8000015c:	8082                	ret

000000008000015e <r_mie>:
    8000015e:	1101                	addi	sp,sp,-32
    80000160:	ec06                	sd	ra,24(sp)
    80000162:	e822                	sd	s0,16(sp)
    80000164:	1000                	addi	s0,sp,32
    80000166:	304027f3          	csrr	a5,mie
    8000016a:	fef43423          	sd	a5,-24(s0)
    8000016e:	fe843783          	ld	a5,-24(s0)
    80000172:	853e                	mv	a0,a5
    80000174:	60e2                	ld	ra,24(sp)
    80000176:	6442                	ld	s0,16(sp)
    80000178:	6105                	addi	sp,sp,32
    8000017a:	8082                	ret

000000008000017c <w_mie>:
    8000017c:	1101                	addi	sp,sp,-32
    8000017e:	ec06                	sd	ra,24(sp)
    80000180:	e822                	sd	s0,16(sp)
    80000182:	1000                	addi	s0,sp,32
    80000184:	fea43423          	sd	a0,-24(s0)
    80000188:	fe843783          	ld	a5,-24(s0)
    8000018c:	30479073          	csrw	mie,a5
    80000190:	0001                	nop
    80000192:	60e2                	ld	ra,24(sp)
    80000194:	6442                	ld	s0,16(sp)
    80000196:	6105                	addi	sp,sp,32
    80000198:	8082                	ret

000000008000019a <w_medeleg>:
    8000019a:	1101                	addi	sp,sp,-32
    8000019c:	ec06                	sd	ra,24(sp)
    8000019e:	e822                	sd	s0,16(sp)
    800001a0:	1000                	addi	s0,sp,32
    800001a2:	fea43423          	sd	a0,-24(s0)
    800001a6:	fe843783          	ld	a5,-24(s0)
    800001aa:	30279073          	csrw	medeleg,a5
    800001ae:	0001                	nop
    800001b0:	60e2                	ld	ra,24(sp)
    800001b2:	6442                	ld	s0,16(sp)
    800001b4:	6105                	addi	sp,sp,32
    800001b6:	8082                	ret

00000000800001b8 <w_mideleg>:
    800001b8:	1101                	addi	sp,sp,-32
    800001ba:	ec06                	sd	ra,24(sp)
    800001bc:	e822                	sd	s0,16(sp)
    800001be:	1000                	addi	s0,sp,32
    800001c0:	fea43423          	sd	a0,-24(s0)
    800001c4:	fe843783          	ld	a5,-24(s0)
    800001c8:	30379073          	csrw	mideleg,a5
    800001cc:	0001                	nop
    800001ce:	60e2                	ld	ra,24(sp)
    800001d0:	6442                	ld	s0,16(sp)
    800001d2:	6105                	addi	sp,sp,32
    800001d4:	8082                	ret

00000000800001d6 <w_mtvec>:
    800001d6:	1101                	addi	sp,sp,-32
    800001d8:	ec06                	sd	ra,24(sp)
    800001da:	e822                	sd	s0,16(sp)
    800001dc:	1000                	addi	s0,sp,32
    800001de:	fea43423          	sd	a0,-24(s0)
    800001e2:	fe843783          	ld	a5,-24(s0)
    800001e6:	30579073          	csrw	mtvec,a5
    800001ea:	0001                	nop
    800001ec:	60e2                	ld	ra,24(sp)
    800001ee:	6442                	ld	s0,16(sp)
    800001f0:	6105                	addi	sp,sp,32
    800001f2:	8082                	ret

00000000800001f4 <w_pmpcfg0>:
    800001f4:	1101                	addi	sp,sp,-32
    800001f6:	ec06                	sd	ra,24(sp)
    800001f8:	e822                	sd	s0,16(sp)
    800001fa:	1000                	addi	s0,sp,32
    800001fc:	fea43423          	sd	a0,-24(s0)
    80000200:	fe843783          	ld	a5,-24(s0)
    80000204:	3a079073          	csrw	pmpcfg0,a5
    80000208:	0001                	nop
    8000020a:	60e2                	ld	ra,24(sp)
    8000020c:	6442                	ld	s0,16(sp)
    8000020e:	6105                	addi	sp,sp,32
    80000210:	8082                	ret

0000000080000212 <w_pmpaddr0>:
    80000212:	1101                	addi	sp,sp,-32
    80000214:	ec06                	sd	ra,24(sp)
    80000216:	e822                	sd	s0,16(sp)
    80000218:	1000                	addi	s0,sp,32
    8000021a:	fea43423          	sd	a0,-24(s0)
    8000021e:	fe843783          	ld	a5,-24(s0)
    80000222:	3b079073          	csrw	pmpaddr0,a5
    80000226:	0001                	nop
    80000228:	60e2                	ld	ra,24(sp)
    8000022a:	6442                	ld	s0,16(sp)
    8000022c:	6105                	addi	sp,sp,32
    8000022e:	8082                	ret

0000000080000230 <w_satp>:
    80000230:	1101                	addi	sp,sp,-32
    80000232:	ec06                	sd	ra,24(sp)
    80000234:	e822                	sd	s0,16(sp)
    80000236:	1000                	addi	s0,sp,32
    80000238:	fea43423          	sd	a0,-24(s0)
    8000023c:	fe843783          	ld	a5,-24(s0)
    80000240:	18079073          	csrw	satp,a5
    80000244:	0001                	nop
    80000246:	60e2                	ld	ra,24(sp)
    80000248:	6442                	ld	s0,16(sp)
    8000024a:	6105                	addi	sp,sp,32
    8000024c:	8082                	ret

000000008000024e <w_mscratch>:
    8000024e:	1101                	addi	sp,sp,-32
    80000250:	ec06                	sd	ra,24(sp)
    80000252:	e822                	sd	s0,16(sp)
    80000254:	1000                	addi	s0,sp,32
    80000256:	fea43423          	sd	a0,-24(s0)
    8000025a:	fe843783          	ld	a5,-24(s0)
    8000025e:	34079073          	csrw	mscratch,a5
    80000262:	0001                	nop
    80000264:	60e2                	ld	ra,24(sp)
    80000266:	6442                	ld	s0,16(sp)
    80000268:	6105                	addi	sp,sp,32
    8000026a:	8082                	ret

000000008000026c <w_tp>:
    8000026c:	1101                	addi	sp,sp,-32
    8000026e:	ec06                	sd	ra,24(sp)
    80000270:	e822                	sd	s0,16(sp)
    80000272:	1000                	addi	s0,sp,32
    80000274:	fea43423          	sd	a0,-24(s0)
    80000278:	fe843783          	ld	a5,-24(s0)
    8000027c:	823e                	mv	tp,a5
    8000027e:	0001                	nop
    80000280:	60e2                	ld	ra,24(sp)
    80000282:	6442                	ld	s0,16(sp)
    80000284:	6105                	addi	sp,sp,32
    80000286:	8082                	ret

0000000080000288 <start>:
    80000288:	1101                	addi	sp,sp,-32
    8000028a:	ec06                	sd	ra,24(sp)
    8000028c:	e822                	sd	s0,16(sp)
    8000028e:	1000                	addi	s0,sp,32
    80000290:	00000097          	auipc	ra,0x0
    80000294:	e38080e7          	jalr	-456(ra) # 800000c8 <r_mstatus>
    80000298:	fea43423          	sd	a0,-24(s0)
    8000029c:	fe843703          	ld	a4,-24(s0)
    800002a0:	77f9                	lui	a5,0xffffe
    800002a2:	7ff78793          	addi	a5,a5,2047 # ffffffffffffe7ff <end+0xffffffff7fff45bb>
    800002a6:	8ff9                	and	a5,a5,a4
    800002a8:	fef43423          	sd	a5,-24(s0)
    800002ac:	fe843703          	ld	a4,-24(s0)
    800002b0:	6785                	lui	a5,0x1
    800002b2:	80078793          	addi	a5,a5,-2048 # 800 <_entry-0x7ffff800>
    800002b6:	8fd9                	or	a5,a5,a4
    800002b8:	fef43423          	sd	a5,-24(s0)
    800002bc:	fe843503          	ld	a0,-24(s0)
    800002c0:	00000097          	auipc	ra,0x0
    800002c4:	e26080e7          	jalr	-474(ra) # 800000e6 <w_mstatus>
    800002c8:	4501                	li	a0,0
    800002ca:	00000097          	auipc	ra,0x0
    800002ce:	f66080e7          	jalr	-154(ra) # 80000230 <w_satp>
    800002d2:	00000797          	auipc	a5,0x0
    800002d6:	2b878793          	addi	a5,a5,696 # 8000058a <main>
    800002da:	853e                	mv	a0,a5
    800002dc:	00000097          	auipc	ra,0x0
    800002e0:	e28080e7          	jalr	-472(ra) # 80000104 <w_mepc>
    800002e4:	67c1                	lui	a5,0x10
    800002e6:	fff78513          	addi	a0,a5,-1 # ffff <_entry-0x7fff0001>
    800002ea:	00000097          	auipc	ra,0x0
    800002ee:	eb0080e7          	jalr	-336(ra) # 8000019a <w_medeleg>
    800002f2:	67c1                	lui	a5,0x10
    800002f4:	fff78513          	addi	a0,a5,-1 # ffff <_entry-0x7fff0001>
    800002f8:	00000097          	auipc	ra,0x0
    800002fc:	ec0080e7          	jalr	-320(ra) # 800001b8 <w_mideleg>
    80000300:	00000097          	auipc	ra,0x0
    80000304:	e22080e7          	jalr	-478(ra) # 80000122 <r_sie>
    80000308:	87aa                	mv	a5,a0
    8000030a:	2227e793          	ori	a5,a5,546
    8000030e:	853e                	mv	a0,a5
    80000310:	00000097          	auipc	ra,0x0
    80000314:	e30080e7          	jalr	-464(ra) # 80000140 <w_sie>
    80000318:	57fd                	li	a5,-1
    8000031a:	00a7d513          	srli	a0,a5,0xa
    8000031e:	00000097          	auipc	ra,0x0
    80000322:	ef4080e7          	jalr	-268(ra) # 80000212 <w_pmpaddr0>
    80000326:	453d                	li	a0,15
    80000328:	00000097          	auipc	ra,0x0
    8000032c:	ecc080e7          	jalr	-308(ra) # 800001f4 <w_pmpcfg0>
    80000330:	00000097          	auipc	ra,0x0
    80000334:	032080e7          	jalr	50(ra) # 80000362 <timerinit>
    80000338:	00000097          	auipc	ra,0x0
    8000033c:	d72080e7          	jalr	-654(ra) # 800000aa <r_mhartid>
    80000340:	87aa                	mv	a5,a0
    80000342:	fef42223          	sw	a5,-28(s0)
    80000346:	fe442783          	lw	a5,-28(s0)
    8000034a:	853e                	mv	a0,a5
    8000034c:	00000097          	auipc	ra,0x0
    80000350:	f20080e7          	jalr	-224(ra) # 8000026c <w_tp>
    80000354:	30200073          	mret
    80000358:	0001                	nop
    8000035a:	60e2                	ld	ra,24(sp)
    8000035c:	6442                	ld	s0,16(sp)
    8000035e:	6105                	addi	sp,sp,32
    80000360:	8082                	ret

0000000080000362 <timerinit>:
    80000362:	7179                	addi	sp,sp,-48
    80000364:	f406                	sd	ra,40(sp)
    80000366:	f022                	sd	s0,32(sp)
    80000368:	1800                	addi	s0,sp,48
    8000036a:	00000097          	auipc	ra,0x0
    8000036e:	d40080e7          	jalr	-704(ra) # 800000aa <r_mhartid>
    80000372:	fea43423          	sd	a0,-24(s0)
    80000376:	000f47b7          	lui	a5,0xf4
    8000037a:	24078793          	addi	a5,a5,576 # f4240 <_entry-0x7ff0bdc0>
    8000037e:	fef42223          	sw	a5,-28(s0)
    80000382:	fe442783          	lw	a5,-28(s0)
    80000386:	873e                	mv	a4,a5
    80000388:	87ba                	mv	a5,a4
    8000038a:	0027979b          	slliw	a5,a5,0x2
    8000038e:	9fb9                	addw	a5,a5,a4
    80000390:	0027979b          	slliw	a5,a5,0x2
    80000394:	fef42023          	sw	a5,-32(s0)
    80000398:	0200c7b7          	lui	a5,0x200c
    8000039c:	17e1                	addi	a5,a5,-8 # 200bff8 <_entry-0x7dff4008>
    8000039e:	6398                	ld	a4,0(a5)
    800003a0:	fe042783          	lw	a5,-32(s0)
    800003a4:	fe843603          	ld	a2,-24(s0)
    800003a8:	004016b7          	lui	a3,0x401
    800003ac:	80068693          	addi	a3,a3,-2048 # 400800 <_entry-0x7fbff800>
    800003b0:	96b2                	add	a3,a3,a2
    800003b2:	068e                	slli	a3,a3,0x3
    800003b4:	97ba                	add	a5,a5,a4
    800003b6:	e29c                	sd	a5,0(a3)
    800003b8:	fe843703          	ld	a4,-24(s0)
    800003bc:	87ba                	mv	a5,a4
    800003be:	078a                	slli	a5,a5,0x2
    800003c0:	97ba                	add	a5,a5,a4
    800003c2:	078e                	slli	a5,a5,0x3
    800003c4:	0000a717          	auipc	a4,0xa
    800003c8:	d3c70713          	addi	a4,a4,-708 # 8000a100 <timer_scratch>
    800003cc:	97ba                	add	a5,a5,a4
    800003ce:	fcf43c23          	sd	a5,-40(s0)
    800003d2:	fe843703          	ld	a4,-24(s0)
    800003d6:	004017b7          	lui	a5,0x401
    800003da:	80078793          	addi	a5,a5,-2048 # 400800 <_entry-0x7fbff800>
    800003de:	973e                	add	a4,a4,a5
    800003e0:	fd843783          	ld	a5,-40(s0)
    800003e4:	07e1                	addi	a5,a5,24
    800003e6:	070e                	slli	a4,a4,0x3
    800003e8:	e398                	sd	a4,0(a5)
    800003ea:	fd843783          	ld	a5,-40(s0)
    800003ee:	02078793          	addi	a5,a5,32
    800003f2:	fe042703          	lw	a4,-32(s0)
    800003f6:	e398                	sd	a4,0(a5)
    800003f8:	fd843783          	ld	a5,-40(s0)
    800003fc:	853e                	mv	a0,a5
    800003fe:	00000097          	auipc	ra,0x0
    80000402:	e50080e7          	jalr	-432(ra) # 8000024e <w_mscratch>
    80000406:	00000797          	auipc	a5,0x0
    8000040a:	c7a78793          	addi	a5,a5,-902 # 80000080 <timervec>
    8000040e:	853e                	mv	a0,a5
    80000410:	00000097          	auipc	ra,0x0
    80000414:	dc6080e7          	jalr	-570(ra) # 800001d6 <w_mtvec>
    80000418:	00000097          	auipc	ra,0x0
    8000041c:	cb0080e7          	jalr	-848(ra) # 800000c8 <r_mstatus>
    80000420:	87aa                	mv	a5,a0
    80000422:	0087e793          	ori	a5,a5,8
    80000426:	853e                	mv	a0,a5
    80000428:	00000097          	auipc	ra,0x0
    8000042c:	cbe080e7          	jalr	-834(ra) # 800000e6 <w_mstatus>
    80000430:	00000097          	auipc	ra,0x0
    80000434:	d2e080e7          	jalr	-722(ra) # 8000015e <r_mie>
    80000438:	87aa                	mv	a5,a0
    8000043a:	0807e793          	ori	a5,a5,128
    8000043e:	853e                	mv	a0,a5
    80000440:	00000097          	auipc	ra,0x0
    80000444:	d3c080e7          	jalr	-708(ra) # 8000017c <w_mie>
    80000448:	0001                	nop
    8000044a:	70a2                	ld	ra,40(sp)
    8000044c:	7402                	ld	s0,32(sp)
    8000044e:	6145                	addi	sp,sp,48
    80000450:	8082                	ret

0000000080000452 <uartinit>:
    80000452:	1141                	addi	sp,sp,-16
    80000454:	e406                	sd	ra,8(sp)
    80000456:	e022                	sd	s0,0(sp)
    80000458:	0800                	addi	s0,sp,16
    8000045a:	100007b7          	lui	a5,0x10000
    8000045e:	0785                	addi	a5,a5,1 # 10000001 <_entry-0x6fffffff>
    80000460:	00078023          	sb	zero,0(a5)
    80000464:	100007b7          	lui	a5,0x10000
    80000468:	078d                	addi	a5,a5,3 # 10000003 <_entry-0x6ffffffd>
    8000046a:	f8000713          	li	a4,-128
    8000046e:	00e78023          	sb	a4,0(a5)
    80000472:	100007b7          	lui	a5,0x10000
    80000476:	470d                	li	a4,3
    80000478:	00e78023          	sb	a4,0(a5) # 10000000 <_entry-0x70000000>
    8000047c:	100007b7          	lui	a5,0x10000
    80000480:	0785                	addi	a5,a5,1 # 10000001 <_entry-0x6fffffff>
    80000482:	00078023          	sb	zero,0(a5)
    80000486:	100007b7          	lui	a5,0x10000
    8000048a:	078d                	addi	a5,a5,3 # 10000003 <_entry-0x6ffffffd>
    8000048c:	470d                	li	a4,3
    8000048e:	00e78023          	sb	a4,0(a5)
    80000492:	100007b7          	lui	a5,0x10000
    80000496:	0789                	addi	a5,a5,2 # 10000002 <_entry-0x6ffffffe>
    80000498:	471d                	li	a4,7
    8000049a:	00e78023          	sb	a4,0(a5)
    8000049e:	0001                	nop
    800004a0:	60a2                	ld	ra,8(sp)
    800004a2:	6402                	ld	s0,0(sp)
    800004a4:	0141                	addi	sp,sp,16
    800004a6:	8082                	ret

00000000800004a8 <uartputc>:
    800004a8:	1101                	addi	sp,sp,-32
    800004aa:	ec06                	sd	ra,24(sp)
    800004ac:	e822                	sd	s0,16(sp)
    800004ae:	1000                	addi	s0,sp,32
    800004b0:	87aa                	mv	a5,a0
    800004b2:	fef407a3          	sb	a5,-17(s0)
    800004b6:	100007b7          	lui	a5,0x10000
    800004ba:	fef44703          	lbu	a4,-17(s0)
    800004be:	00e78023          	sb	a4,0(a5) # 10000000 <_entry-0x70000000>
    800004c2:	0001                	nop
    800004c4:	60e2                	ld	ra,24(sp)
    800004c6:	6442                	ld	s0,16(sp)
    800004c8:	6105                	addi	sp,sp,32
    800004ca:	8082                	ret

00000000800004cc <consputc>:
    800004cc:	1101                	addi	sp,sp,-32
    800004ce:	ec06                	sd	ra,24(sp)
    800004d0:	e822                	sd	s0,16(sp)
    800004d2:	1000                	addi	s0,sp,32
    800004d4:	87aa                	mv	a5,a0
    800004d6:	fef407a3          	sb	a5,-17(s0)
    800004da:	fef44783          	lbu	a5,-17(s0)
    800004de:	853e                	mv	a0,a5
    800004e0:	00000097          	auipc	ra,0x0
    800004e4:	fc8080e7          	jalr	-56(ra) # 800004a8 <uartputc>
    800004e8:	0001                	nop
    800004ea:	60e2                	ld	ra,24(sp)
    800004ec:	6442                	ld	s0,16(sp)
    800004ee:	6105                	addi	sp,sp,32
    800004f0:	8082                	ret

00000000800004f2 <uartputs>:
    800004f2:	1101                	addi	sp,sp,-32
    800004f4:	ec06                	sd	ra,24(sp)
    800004f6:	e822                	sd	s0,16(sp)
    800004f8:	1000                	addi	s0,sp,32
    800004fa:	fea43423          	sd	a0,-24(s0)
    800004fe:	a81d                	j	80000534 <uartputs+0x42>
    80000500:	fe843783          	ld	a5,-24(s0)
    80000504:	0007c783          	lbu	a5,0(a5)
    80000508:	873e                	mv	a4,a5
    8000050a:	47a9                	li	a5,10
    8000050c:	00f71763          	bne	a4,a5,8000051a <uartputs+0x28>
    80000510:	4535                	li	a0,13
    80000512:	00000097          	auipc	ra,0x0
    80000516:	f96080e7          	jalr	-106(ra) # 800004a8 <uartputc>
    8000051a:	fe843783          	ld	a5,-24(s0)
    8000051e:	00178713          	addi	a4,a5,1
    80000522:	fee43423          	sd	a4,-24(s0)
    80000526:	0007c783          	lbu	a5,0(a5)
    8000052a:	853e                	mv	a0,a5
    8000052c:	00000097          	auipc	ra,0x0
    80000530:	f7c080e7          	jalr	-132(ra) # 800004a8 <uartputc>
    80000534:	fe843783          	ld	a5,-24(s0)
    80000538:	c791                	beqz	a5,80000544 <uartputs+0x52>
    8000053a:	fe843783          	ld	a5,-24(s0)
    8000053e:	0007c783          	lbu	a5,0(a5)
    80000542:	ffdd                	bnez	a5,80000500 <uartputs+0xe>
    80000544:	0001                	nop
    80000546:	60e2                	ld	ra,24(sp)
    80000548:	6442                	ld	s0,16(sp)
    8000054a:	6105                	addi	sp,sp,32
    8000054c:	8082                	ret

000000008000054e <r_sstatus>:
    8000054e:	1101                	addi	sp,sp,-32
    80000550:	ec06                	sd	ra,24(sp)
    80000552:	e822                	sd	s0,16(sp)
    80000554:	1000                	addi	s0,sp,32
    80000556:	100027f3          	csrr	a5,sstatus
    8000055a:	fef43423          	sd	a5,-24(s0)
    8000055e:	fe843783          	ld	a5,-24(s0)
    80000562:	853e                	mv	a0,a5
    80000564:	60e2                	ld	ra,24(sp)
    80000566:	6442                	ld	s0,16(sp)
    80000568:	6105                	addi	sp,sp,32
    8000056a:	8082                	ret

000000008000056c <w_sstatus>:
    8000056c:	1101                	addi	sp,sp,-32
    8000056e:	ec06                	sd	ra,24(sp)
    80000570:	e822                	sd	s0,16(sp)
    80000572:	1000                	addi	s0,sp,32
    80000574:	fea43423          	sd	a0,-24(s0)
    80000578:	fe843783          	ld	a5,-24(s0)
    8000057c:	10079073          	csrw	sstatus,a5
    80000580:	0001                	nop
    80000582:	60e2                	ld	ra,24(sp)
    80000584:	6442                	ld	s0,16(sp)
    80000586:	6105                	addi	sp,sp,32
    80000588:	8082                	ret

000000008000058a <main>:
    8000058a:	1141                	addi	sp,sp,-16
    8000058c:	e406                	sd	ra,8(sp)
    8000058e:	e022                	sd	s0,0(sp)
    80000590:	0800                	addi	s0,sp,16
    80000592:	00002517          	auipc	a0,0x2
    80000596:	a6e50513          	addi	a0,a0,-1426 # 80002000 <_trampoline>
    8000059a:	00000097          	auipc	ra,0x0
    8000059e:	f58080e7          	jalr	-168(ra) # 800004f2 <uartputs>
    800005a2:	00002517          	auipc	a0,0x2
    800005a6:	a7650513          	addi	a0,a0,-1418 # 80002018 <_trampoline+0x18>
    800005aa:	00000097          	auipc	ra,0x0
    800005ae:	f48080e7          	jalr	-184(ra) # 800004f2 <uartputs>
    800005b2:	00000097          	auipc	ra,0x0
    800005b6:	ea0080e7          	jalr	-352(ra) # 80000452 <uartinit>
    800005ba:	00002517          	auipc	a0,0x2
    800005be:	a7650513          	addi	a0,a0,-1418 # 80002030 <_trampoline+0x30>
    800005c2:	00000097          	auipc	ra,0x0
    800005c6:	f30080e7          	jalr	-208(ra) # 800004f2 <uartputs>
    800005ca:	00000097          	auipc	ra,0x0
    800005ce:	0bc080e7          	jalr	188(ra) # 80000686 <trapinithart>
    800005d2:	00000097          	auipc	ra,0x0
    800005d6:	f7c080e7          	jalr	-132(ra) # 8000054e <r_sstatus>
    800005da:	87aa                	mv	a5,a0
    800005dc:	0027e793          	ori	a5,a5,2
    800005e0:	853e                	mv	a0,a5
    800005e2:	00000097          	auipc	ra,0x0
    800005e6:	f8a080e7          	jalr	-118(ra) # 8000056c <w_sstatus>
    800005ea:	00002517          	auipc	a0,0x2
    800005ee:	a5e50513          	addi	a0,a0,-1442 # 80002048 <_trampoline+0x48>
    800005f2:	00000097          	auipc	ra,0x0
    800005f6:	f00080e7          	jalr	-256(ra) # 800004f2 <uartputs>
    800005fa:	00000097          	auipc	ra,0x0
    800005fe:	166080e7          	jalr	358(ra) # 80000760 <kinit>
    80000602:	00000097          	auipc	ra,0x0
    80000606:	2b2080e7          	jalr	690(ra) # 800008b4 <kmemtest>
    8000060a:	0001                	nop
    8000060c:	bffd                	j	8000060a <main+0x80>

000000008000060e <r_sip>:
    8000060e:	1101                	addi	sp,sp,-32
    80000610:	ec06                	sd	ra,24(sp)
    80000612:	e822                	sd	s0,16(sp)
    80000614:	1000                	addi	s0,sp,32
    80000616:	144027f3          	csrr	a5,sip
    8000061a:	fef43423          	sd	a5,-24(s0)
    8000061e:	fe843783          	ld	a5,-24(s0)
    80000622:	853e                	mv	a0,a5
    80000624:	60e2                	ld	ra,24(sp)
    80000626:	6442                	ld	s0,16(sp)
    80000628:	6105                	addi	sp,sp,32
    8000062a:	8082                	ret

000000008000062c <w_sip>:
    8000062c:	1101                	addi	sp,sp,-32
    8000062e:	ec06                	sd	ra,24(sp)
    80000630:	e822                	sd	s0,16(sp)
    80000632:	1000                	addi	s0,sp,32
    80000634:	fea43423          	sd	a0,-24(s0)
    80000638:	fe843783          	ld	a5,-24(s0)
    8000063c:	14479073          	csrw	sip,a5
    80000640:	0001                	nop
    80000642:	60e2                	ld	ra,24(sp)
    80000644:	6442                	ld	s0,16(sp)
    80000646:	6105                	addi	sp,sp,32
    80000648:	8082                	ret

000000008000064a <w_stvec>:
    8000064a:	1101                	addi	sp,sp,-32
    8000064c:	ec06                	sd	ra,24(sp)
    8000064e:	e822                	sd	s0,16(sp)
    80000650:	1000                	addi	s0,sp,32
    80000652:	fea43423          	sd	a0,-24(s0)
    80000656:	fe843783          	ld	a5,-24(s0)
    8000065a:	10579073          	csrw	stvec,a5
    8000065e:	0001                	nop
    80000660:	60e2                	ld	ra,24(sp)
    80000662:	6442                	ld	s0,16(sp)
    80000664:	6105                	addi	sp,sp,32
    80000666:	8082                	ret

0000000080000668 <r_scause>:
    80000668:	1101                	addi	sp,sp,-32
    8000066a:	ec06                	sd	ra,24(sp)
    8000066c:	e822                	sd	s0,16(sp)
    8000066e:	1000                	addi	s0,sp,32
    80000670:	142027f3          	csrr	a5,scause
    80000674:	fef43423          	sd	a5,-24(s0)
    80000678:	fe843783          	ld	a5,-24(s0)
    8000067c:	853e                	mv	a0,a5
    8000067e:	60e2                	ld	ra,24(sp)
    80000680:	6442                	ld	s0,16(sp)
    80000682:	6105                	addi	sp,sp,32
    80000684:	8082                	ret

0000000080000686 <trapinithart>:
    80000686:	1141                	addi	sp,sp,-16
    80000688:	e406                	sd	ra,8(sp)
    8000068a:	e022                	sd	s0,0(sp)
    8000068c:	0800                	addi	s0,sp,16
    8000068e:	00000797          	auipc	a5,0x0
    80000692:	99278793          	addi	a5,a5,-1646 # 80000020 <kernelvec>
    80000696:	853e                	mv	a0,a5
    80000698:	00000097          	auipc	ra,0x0
    8000069c:	fb2080e7          	jalr	-78(ra) # 8000064a <w_stvec>
    800006a0:	0001                	nop
    800006a2:	60a2                	ld	ra,8(sp)
    800006a4:	6402                	ld	s0,0(sp)
    800006a6:	0141                	addi	sp,sp,16
    800006a8:	8082                	ret

00000000800006aa <kerneltrap>:
    800006aa:	1101                	addi	sp,sp,-32
    800006ac:	ec06                	sd	ra,24(sp)
    800006ae:	e822                	sd	s0,16(sp)
    800006b0:	1000                	addi	s0,sp,32
    800006b2:	00000097          	auipc	ra,0x0
    800006b6:	066080e7          	jalr	102(ra) # 80000718 <devinitr>
    800006ba:	87aa                	mv	a5,a0
    800006bc:	fef42623          	sw	a5,-20(s0)
    800006c0:	fec42783          	lw	a5,-20(s0)
    800006c4:	2781                	sext.w	a5,a5
    800006c6:	eb99                	bnez	a5,800006dc <kerneltrap+0x32>
    800006c8:	00002517          	auipc	a0,0x2
    800006cc:	99050513          	addi	a0,a0,-1648 # 80002058 <_trampoline+0x58>
    800006d0:	00000097          	auipc	ra,0x0
    800006d4:	e22080e7          	jalr	-478(ra) # 800004f2 <uartputs>
    800006d8:	0001                	nop
    800006da:	bffd                	j	800006d8 <kerneltrap+0x2e>
    800006dc:	fec42783          	lw	a5,-20(s0)
    800006e0:	0007871b          	sext.w	a4,a5
    800006e4:	4789                	li	a5,2
    800006e6:	00f71b63          	bne	a4,a5,800006fc <kerneltrap+0x52>
    800006ea:	00002517          	auipc	a0,0x2
    800006ee:	98650513          	addi	a0,a0,-1658 # 80002070 <_trampoline+0x70>
    800006f2:	00000097          	auipc	ra,0x0
    800006f6:	e00080e7          	jalr	-512(ra) # 800004f2 <uartputs>
    800006fa:	a819                	j	80000710 <kerneltrap+0x66>
    800006fc:	00002517          	auipc	a0,0x2
    80000700:	95c50513          	addi	a0,a0,-1700 # 80002058 <_trampoline+0x58>
    80000704:	00000097          	auipc	ra,0x0
    80000708:	dee080e7          	jalr	-530(ra) # 800004f2 <uartputs>
    8000070c:	0001                	nop
    8000070e:	bffd                	j	8000070c <kerneltrap+0x62>
    80000710:	60e2                	ld	ra,24(sp)
    80000712:	6442                	ld	s0,16(sp)
    80000714:	6105                	addi	sp,sp,32
    80000716:	8082                	ret

0000000080000718 <devinitr>:
    80000718:	1101                	addi	sp,sp,-32
    8000071a:	ec06                	sd	ra,24(sp)
    8000071c:	e822                	sd	s0,16(sp)
    8000071e:	1000                	addi	s0,sp,32
    80000720:	00000097          	auipc	ra,0x0
    80000724:	f48080e7          	jalr	-184(ra) # 80000668 <r_scause>
    80000728:	fea43423          	sd	a0,-24(s0)
    8000072c:	fe843703          	ld	a4,-24(s0)
    80000730:	57fd                	li	a5,-1
    80000732:	17fe                	slli	a5,a5,0x3f
    80000734:	0785                	addi	a5,a5,1
    80000736:	00f71f63          	bne	a4,a5,80000754 <devinitr+0x3c>
    8000073a:	00000097          	auipc	ra,0x0
    8000073e:	ed4080e7          	jalr	-300(ra) # 8000060e <r_sip>
    80000742:	87aa                	mv	a5,a0
    80000744:	9bf5                	andi	a5,a5,-3
    80000746:	853e                	mv	a0,a5
    80000748:	00000097          	auipc	ra,0x0
    8000074c:	ee4080e7          	jalr	-284(ra) # 8000062c <w_sip>
    80000750:	4789                	li	a5,2
    80000752:	a011                	j	80000756 <devinitr+0x3e>
    80000754:	4781                	li	a5,0
    80000756:	853e                	mv	a0,a5
    80000758:	60e2                	ld	ra,24(sp)
    8000075a:	6442                	ld	s0,16(sp)
    8000075c:	6105                	addi	sp,sp,32
    8000075e:	8082                	ret

0000000080000760 <kinit>:
    80000760:	1141                	addi	sp,sp,-16
    80000762:	e406                	sd	ra,8(sp)
    80000764:	e022                	sd	s0,0(sp)
    80000766:	0800                	addi	s0,sp,16
    80000768:	47c5                	li	a5,17
    8000076a:	01b79593          	slli	a1,a5,0x1b
    8000076e:	0000a517          	auipc	a0,0xa
    80000772:	ad650513          	addi	a0,a0,-1322 # 8000a244 <end>
    80000776:	00000097          	auipc	ra,0x0
    8000077a:	0e6080e7          	jalr	230(ra) # 8000085c <freerange>
    8000077e:	0001                	nop
    80000780:	60a2                	ld	ra,8(sp)
    80000782:	6402                	ld	s0,0(sp)
    80000784:	0141                	addi	sp,sp,16
    80000786:	8082                	ret

0000000080000788 <kalloc>:
    80000788:	1101                	addi	sp,sp,-32
    8000078a:	ec06                	sd	ra,24(sp)
    8000078c:	e822                	sd	s0,16(sp)
    8000078e:	1000                	addi	s0,sp,32
    80000790:	00002797          	auipc	a5,0x2
    80000794:	96078793          	addi	a5,a5,-1696 # 800020f0 <kmem>
    80000798:	639c                	ld	a5,0(a5)
    8000079a:	fef43423          	sd	a5,-24(s0)
    8000079e:	fe843783          	ld	a5,-24(s0)
    800007a2:	cb89                	beqz	a5,800007b4 <kalloc+0x2c>
    800007a4:	fe843783          	ld	a5,-24(s0)
    800007a8:	6398                	ld	a4,0(a5)
    800007aa:	00002797          	auipc	a5,0x2
    800007ae:	94678793          	addi	a5,a5,-1722 # 800020f0 <kmem>
    800007b2:	e398                	sd	a4,0(a5)
    800007b4:	fe843783          	ld	a5,-24(s0)
    800007b8:	cb89                	beqz	a5,800007ca <kalloc+0x42>
    800007ba:	6605                	lui	a2,0x1
    800007bc:	4595                	li	a1,5
    800007be:	fe843503          	ld	a0,-24(s0)
    800007c2:	00000097          	auipc	ra,0x0
    800007c6:	260080e7          	jalr	608(ra) # 80000a22 <memset>
    800007ca:	fe843783          	ld	a5,-24(s0)
    800007ce:	853e                	mv	a0,a5
    800007d0:	60e2                	ld	ra,24(sp)
    800007d2:	6442                	ld	s0,16(sp)
    800007d4:	6105                	addi	sp,sp,32
    800007d6:	8082                	ret

00000000800007d8 <kfree>:
    800007d8:	7179                	addi	sp,sp,-48
    800007da:	f406                	sd	ra,40(sp)
    800007dc:	f022                	sd	s0,32(sp)
    800007de:	1800                	addi	s0,sp,48
    800007e0:	fca43c23          	sd	a0,-40(s0)
    800007e4:	fd843703          	ld	a4,-40(s0)
    800007e8:	6785                	lui	a5,0x1
    800007ea:	17fd                	addi	a5,a5,-1 # fff <_entry-0x7ffff001>
    800007ec:	8ff9                	and	a5,a5,a4
    800007ee:	ef99                	bnez	a5,8000080c <kfree+0x34>
    800007f0:	fd843703          	ld	a4,-40(s0)
    800007f4:	0000a797          	auipc	a5,0xa
    800007f8:	a5078793          	addi	a5,a5,-1456 # 8000a244 <end>
    800007fc:	00f76863          	bltu	a4,a5,8000080c <kfree+0x34>
    80000800:	fd843703          	ld	a4,-40(s0)
    80000804:	47c5                	li	a5,17
    80000806:	07ee                	slli	a5,a5,0x1b
    80000808:	00f76a63          	bltu	a4,a5,8000081c <kfree+0x44>
    8000080c:	00002517          	auipc	a0,0x2
    80000810:	87450513          	addi	a0,a0,-1932 # 80002080 <_trampoline+0x80>
    80000814:	00001097          	auipc	ra,0x1
    80000818:	b68080e7          	jalr	-1176(ra) # 8000137c <panic>
    8000081c:	6605                	lui	a2,0x1
    8000081e:	4585                	li	a1,1
    80000820:	fd843503          	ld	a0,-40(s0)
    80000824:	00000097          	auipc	ra,0x0
    80000828:	1fe080e7          	jalr	510(ra) # 80000a22 <memset>
    8000082c:	fd843783          	ld	a5,-40(s0)
    80000830:	fef43423          	sd	a5,-24(s0)
    80000834:	00002797          	auipc	a5,0x2
    80000838:	8bc78793          	addi	a5,a5,-1860 # 800020f0 <kmem>
    8000083c:	6398                	ld	a4,0(a5)
    8000083e:	fe843783          	ld	a5,-24(s0)
    80000842:	e398                	sd	a4,0(a5)
    80000844:	00002797          	auipc	a5,0x2
    80000848:	8ac78793          	addi	a5,a5,-1876 # 800020f0 <kmem>
    8000084c:	fe843703          	ld	a4,-24(s0)
    80000850:	e398                	sd	a4,0(a5)
    80000852:	0001                	nop
    80000854:	70a2                	ld	ra,40(sp)
    80000856:	7402                	ld	s0,32(sp)
    80000858:	6145                	addi	sp,sp,48
    8000085a:	8082                	ret

000000008000085c <freerange>:
    8000085c:	7179                	addi	sp,sp,-48
    8000085e:	f406                	sd	ra,40(sp)
    80000860:	f022                	sd	s0,32(sp)
    80000862:	1800                	addi	s0,sp,48
    80000864:	fca43c23          	sd	a0,-40(s0)
    80000868:	fcb43823          	sd	a1,-48(s0)
    8000086c:	fd843703          	ld	a4,-40(s0)
    80000870:	6785                	lui	a5,0x1
    80000872:	17fd                	addi	a5,a5,-1 # fff <_entry-0x7ffff001>
    80000874:	973e                	add	a4,a4,a5
    80000876:	77fd                	lui	a5,0xfffff
    80000878:	8ff9                	and	a5,a5,a4
    8000087a:	fef43423          	sd	a5,-24(s0)
    8000087e:	a829                	j	80000898 <freerange+0x3c>
    80000880:	fe843503          	ld	a0,-24(s0)
    80000884:	00000097          	auipc	ra,0x0
    80000888:	f54080e7          	jalr	-172(ra) # 800007d8 <kfree>
    8000088c:	fe843703          	ld	a4,-24(s0)
    80000890:	6785                	lui	a5,0x1
    80000892:	97ba                	add	a5,a5,a4
    80000894:	fef43423          	sd	a5,-24(s0)
    80000898:	fe843703          	ld	a4,-24(s0)
    8000089c:	6785                	lui	a5,0x1
    8000089e:	97ba                	add	a5,a5,a4
    800008a0:	fd043703          	ld	a4,-48(s0)
    800008a4:	fcf77ee3          	bgeu	a4,a5,80000880 <freerange+0x24>
    800008a8:	0001                	nop
    800008aa:	0001                	nop
    800008ac:	70a2                	ld	ra,40(sp)
    800008ae:	7402                	ld	s0,32(sp)
    800008b0:	6145                	addi	sp,sp,48
    800008b2:	8082                	ret

00000000800008b4 <kmemtest>:
    800008b4:	7179                	addi	sp,sp,-48
    800008b6:	f406                	sd	ra,40(sp)
    800008b8:	f022                	sd	s0,32(sp)
    800008ba:	1800                	addi	s0,sp,48
    800008bc:	00000097          	auipc	ra,0x0
    800008c0:	ecc080e7          	jalr	-308(ra) # 80000788 <kalloc>
    800008c4:	fea43423          	sd	a0,-24(s0)
    800008c8:	fe843783          	ld	a5,-24(s0)
    800008cc:	cf99                	beqz	a5,800008ea <kmemtest+0x36>
    800008ce:	fe843783          	ld	a5,-24(s0)
    800008d2:	4719                	li	a4,6
    800008d4:	e398                	sd	a4,0(a5)
    800008d6:	fe843583          	ld	a1,-24(s0)
    800008da:	00001517          	auipc	a0,0x1
    800008de:	7ae50513          	addi	a0,a0,1966 # 80002088 <_trampoline+0x88>
    800008e2:	00000097          	auipc	ra,0x0
    800008e6:	672080e7          	jalr	1650(ra) # 80000f54 <printf>
    800008ea:	00000097          	auipc	ra,0x0
    800008ee:	e9e080e7          	jalr	-354(ra) # 80000788 <kalloc>
    800008f2:	fea43023          	sd	a0,-32(s0)
    800008f6:	fe043783          	ld	a5,-32(s0)
    800008fa:	cf99                	beqz	a5,80000918 <kmemtest+0x64>
    800008fc:	fe043783          	ld	a5,-32(s0)
    80000900:	4719                	li	a4,6
    80000902:	e398                	sd	a4,0(a5)
    80000904:	fe043583          	ld	a1,-32(s0)
    80000908:	00001517          	auipc	a0,0x1
    8000090c:	79050513          	addi	a0,a0,1936 # 80002098 <_trampoline+0x98>
    80000910:	00000097          	auipc	ra,0x0
    80000914:	644080e7          	jalr	1604(ra) # 80000f54 <printf>
    80000918:	fe843503          	ld	a0,-24(s0)
    8000091c:	00000097          	auipc	ra,0x0
    80000920:	ebc080e7          	jalr	-324(ra) # 800007d8 <kfree>
    80000924:	fe043503          	ld	a0,-32(s0)
    80000928:	00000097          	auipc	ra,0x0
    8000092c:	eb0080e7          	jalr	-336(ra) # 800007d8 <kfree>
    80000930:	00000097          	auipc	ra,0x0
    80000934:	e58080e7          	jalr	-424(ra) # 80000788 <kalloc>
    80000938:	fca43c23          	sd	a0,-40(s0)
    8000093c:	fd843783          	ld	a5,-40(s0)
    80000940:	cf99                	beqz	a5,8000095e <kmemtest+0xaa>
    80000942:	fd843783          	ld	a5,-40(s0)
    80000946:	4719                	li	a4,6
    80000948:	e398                	sd	a4,0(a5)
    8000094a:	fd843583          	ld	a1,-40(s0)
    8000094e:	00001517          	auipc	a0,0x1
    80000952:	75a50513          	addi	a0,a0,1882 # 800020a8 <_trampoline+0xa8>
    80000956:	00000097          	auipc	ra,0x0
    8000095a:	5fe080e7          	jalr	1534(ra) # 80000f54 <printf>
    8000095e:	fd843503          	ld	a0,-40(s0)
    80000962:	00000097          	auipc	ra,0x0
    80000966:	e76080e7          	jalr	-394(ra) # 800007d8 <kfree>
    8000096a:	00000097          	auipc	ra,0x0
    8000096e:	e1e080e7          	jalr	-482(ra) # 80000788 <kalloc>
    80000972:	fea43423          	sd	a0,-24(s0)
    80000976:	fe843783          	ld	a5,-24(s0)
    8000097a:	cf99                	beqz	a5,80000998 <kmemtest+0xe4>
    8000097c:	fe843783          	ld	a5,-24(s0)
    80000980:	4719                	li	a4,6
    80000982:	e398                	sd	a4,0(a5)
    80000984:	fe843583          	ld	a1,-24(s0)
    80000988:	00001517          	auipc	a0,0x1
    8000098c:	70050513          	addi	a0,a0,1792 # 80002088 <_trampoline+0x88>
    80000990:	00000097          	auipc	ra,0x0
    80000994:	5c4080e7          	jalr	1476(ra) # 80000f54 <printf>
    80000998:	00000097          	auipc	ra,0x0
    8000099c:	df0080e7          	jalr	-528(ra) # 80000788 <kalloc>
    800009a0:	fea43023          	sd	a0,-32(s0)
    800009a4:	fe043783          	ld	a5,-32(s0)
    800009a8:	cf99                	beqz	a5,800009c6 <kmemtest+0x112>
    800009aa:	fe043783          	ld	a5,-32(s0)
    800009ae:	4719                	li	a4,6
    800009b0:	e398                	sd	a4,0(a5)
    800009b2:	fe043583          	ld	a1,-32(s0)
    800009b6:	00001517          	auipc	a0,0x1
    800009ba:	6e250513          	addi	a0,a0,1762 # 80002098 <_trampoline+0x98>
    800009be:	00000097          	auipc	ra,0x0
    800009c2:	596080e7          	jalr	1430(ra) # 80000f54 <printf>
    800009c6:	fe043503          	ld	a0,-32(s0)
    800009ca:	00000097          	auipc	ra,0x0
    800009ce:	e0e080e7          	jalr	-498(ra) # 800007d8 <kfree>
    800009d2:	fe843503          	ld	a0,-24(s0)
    800009d6:	00000097          	auipc	ra,0x0
    800009da:	e02080e7          	jalr	-510(ra) # 800007d8 <kfree>
    800009de:	00000097          	auipc	ra,0x0
    800009e2:	daa080e7          	jalr	-598(ra) # 80000788 <kalloc>
    800009e6:	fca43c23          	sd	a0,-40(s0)
    800009ea:	fd843783          	ld	a5,-40(s0)
    800009ee:	cf99                	beqz	a5,80000a0c <kmemtest+0x158>
    800009f0:	fd843783          	ld	a5,-40(s0)
    800009f4:	4719                	li	a4,6
    800009f6:	e398                	sd	a4,0(a5)
    800009f8:	fd843583          	ld	a1,-40(s0)
    800009fc:	00001517          	auipc	a0,0x1
    80000a00:	6ac50513          	addi	a0,a0,1708 # 800020a8 <_trampoline+0xa8>
    80000a04:	00000097          	auipc	ra,0x0
    80000a08:	550080e7          	jalr	1360(ra) # 80000f54 <printf>
    80000a0c:	fd843503          	ld	a0,-40(s0)
    80000a10:	00000097          	auipc	ra,0x0
    80000a14:	dc8080e7          	jalr	-568(ra) # 800007d8 <kfree>
    80000a18:	0001                	nop
    80000a1a:	70a2                	ld	ra,40(sp)
    80000a1c:	7402                	ld	s0,32(sp)
    80000a1e:	6145                	addi	sp,sp,48
    80000a20:	8082                	ret

0000000080000a22 <memset>:
    80000a22:	7179                	addi	sp,sp,-48
    80000a24:	f406                	sd	ra,40(sp)
    80000a26:	f022                	sd	s0,32(sp)
    80000a28:	1800                	addi	s0,sp,48
    80000a2a:	fca43c23          	sd	a0,-40(s0)
    80000a2e:	87ae                	mv	a5,a1
    80000a30:	8732                	mv	a4,a2
    80000a32:	fcf42a23          	sw	a5,-44(s0)
    80000a36:	87ba                	mv	a5,a4
    80000a38:	fcf42823          	sw	a5,-48(s0)
    80000a3c:	fd843783          	ld	a5,-40(s0)
    80000a40:	fef43023          	sd	a5,-32(s0)
    80000a44:	fe042623          	sw	zero,-20(s0)
    80000a48:	a00d                	j	80000a6a <memset+0x48>
    80000a4a:	fec42783          	lw	a5,-20(s0)
    80000a4e:	fe043703          	ld	a4,-32(s0)
    80000a52:	97ba                	add	a5,a5,a4
    80000a54:	fd442703          	lw	a4,-44(s0)
    80000a58:	0ff77713          	zext.b	a4,a4
    80000a5c:	00e78023          	sb	a4,0(a5) # 1000 <_entry-0x7ffff000>
    80000a60:	fec42783          	lw	a5,-20(s0)
    80000a64:	2785                	addiw	a5,a5,1
    80000a66:	fef42623          	sw	a5,-20(s0)
    80000a6a:	fec42783          	lw	a5,-20(s0)
    80000a6e:	fd042703          	lw	a4,-48(s0)
    80000a72:	2701                	sext.w	a4,a4
    80000a74:	fce7ebe3          	bltu	a5,a4,80000a4a <memset+0x28>
    80000a78:	fd843783          	ld	a5,-40(s0)
    80000a7c:	853e                	mv	a0,a5
    80000a7e:	70a2                	ld	ra,40(sp)
    80000a80:	7402                	ld	s0,32(sp)
    80000a82:	6145                	addi	sp,sp,48
    80000a84:	8082                	ret

0000000080000a86 <memcmp>:
    80000a86:	7139                	addi	sp,sp,-64
    80000a88:	fc06                	sd	ra,56(sp)
    80000a8a:	f822                	sd	s0,48(sp)
    80000a8c:	0080                	addi	s0,sp,64
    80000a8e:	fca43c23          	sd	a0,-40(s0)
    80000a92:	fcb43823          	sd	a1,-48(s0)
    80000a96:	87b2                	mv	a5,a2
    80000a98:	fcf42623          	sw	a5,-52(s0)
    80000a9c:	fd843783          	ld	a5,-40(s0)
    80000aa0:	fef43423          	sd	a5,-24(s0)
    80000aa4:	fd043783          	ld	a5,-48(s0)
    80000aa8:	fef43023          	sd	a5,-32(s0)
    80000aac:	a0a1                	j	80000af4 <memcmp+0x6e>
    80000aae:	fe843783          	ld	a5,-24(s0)
    80000ab2:	0007c703          	lbu	a4,0(a5)
    80000ab6:	fe043783          	ld	a5,-32(s0)
    80000aba:	0007c783          	lbu	a5,0(a5)
    80000abe:	02f70163          	beq	a4,a5,80000ae0 <memcmp+0x5a>
    80000ac2:	fe843783          	ld	a5,-24(s0)
    80000ac6:	0007c783          	lbu	a5,0(a5)
    80000aca:	0007871b          	sext.w	a4,a5
    80000ace:	fe043783          	ld	a5,-32(s0)
    80000ad2:	0007c783          	lbu	a5,0(a5)
    80000ad6:	2781                	sext.w	a5,a5
    80000ad8:	40f707bb          	subw	a5,a4,a5
    80000adc:	2781                	sext.w	a5,a5
    80000ade:	a01d                	j	80000b04 <memcmp+0x7e>
    80000ae0:	fe843783          	ld	a5,-24(s0)
    80000ae4:	0785                	addi	a5,a5,1
    80000ae6:	fef43423          	sd	a5,-24(s0)
    80000aea:	fe043783          	ld	a5,-32(s0)
    80000aee:	0785                	addi	a5,a5,1
    80000af0:	fef43023          	sd	a5,-32(s0)
    80000af4:	fcc42783          	lw	a5,-52(s0)
    80000af8:	fff7871b          	addiw	a4,a5,-1
    80000afc:	fce42623          	sw	a4,-52(s0)
    80000b00:	f7dd                	bnez	a5,80000aae <memcmp+0x28>
    80000b02:	4781                	li	a5,0
    80000b04:	853e                	mv	a0,a5
    80000b06:	70e2                	ld	ra,56(sp)
    80000b08:	7442                	ld	s0,48(sp)
    80000b0a:	6121                	addi	sp,sp,64
    80000b0c:	8082                	ret

0000000080000b0e <memmove>:
    80000b0e:	7139                	addi	sp,sp,-64
    80000b10:	fc06                	sd	ra,56(sp)
    80000b12:	f822                	sd	s0,48(sp)
    80000b14:	0080                	addi	s0,sp,64
    80000b16:	fca43c23          	sd	a0,-40(s0)
    80000b1a:	fcb43823          	sd	a1,-48(s0)
    80000b1e:	87b2                	mv	a5,a2
    80000b20:	fcf42623          	sw	a5,-52(s0)
    80000b24:	fcc42783          	lw	a5,-52(s0)
    80000b28:	2781                	sext.w	a5,a5
    80000b2a:	e781                	bnez	a5,80000b32 <memmove+0x24>
    80000b2c:	fd843783          	ld	a5,-40(s0)
    80000b30:	a855                	j	80000be4 <memmove+0xd6>
    80000b32:	fd043783          	ld	a5,-48(s0)
    80000b36:	fef43423          	sd	a5,-24(s0)
    80000b3a:	fd843783          	ld	a5,-40(s0)
    80000b3e:	fef43023          	sd	a5,-32(s0)
    80000b42:	fe843703          	ld	a4,-24(s0)
    80000b46:	fe043783          	ld	a5,-32(s0)
    80000b4a:	08f77463          	bgeu	a4,a5,80000bd2 <memmove+0xc4>
    80000b4e:	fcc46783          	lwu	a5,-52(s0)
    80000b52:	fe843703          	ld	a4,-24(s0)
    80000b56:	97ba                	add	a5,a5,a4
    80000b58:	fe043703          	ld	a4,-32(s0)
    80000b5c:	06f77b63          	bgeu	a4,a5,80000bd2 <memmove+0xc4>
    80000b60:	fcc46783          	lwu	a5,-52(s0)
    80000b64:	fe843703          	ld	a4,-24(s0)
    80000b68:	97ba                	add	a5,a5,a4
    80000b6a:	fef43423          	sd	a5,-24(s0)
    80000b6e:	fcc46783          	lwu	a5,-52(s0)
    80000b72:	fe043703          	ld	a4,-32(s0)
    80000b76:	97ba                	add	a5,a5,a4
    80000b78:	fef43023          	sd	a5,-32(s0)
    80000b7c:	a01d                	j	80000ba2 <memmove+0x94>
    80000b7e:	fe843783          	ld	a5,-24(s0)
    80000b82:	17fd                	addi	a5,a5,-1
    80000b84:	fef43423          	sd	a5,-24(s0)
    80000b88:	fe043783          	ld	a5,-32(s0)
    80000b8c:	17fd                	addi	a5,a5,-1
    80000b8e:	fef43023          	sd	a5,-32(s0)
    80000b92:	fe843783          	ld	a5,-24(s0)
    80000b96:	0007c703          	lbu	a4,0(a5)
    80000b9a:	fe043783          	ld	a5,-32(s0)
    80000b9e:	00e78023          	sb	a4,0(a5)
    80000ba2:	fcc42783          	lw	a5,-52(s0)
    80000ba6:	fff7871b          	addiw	a4,a5,-1
    80000baa:	fce42623          	sw	a4,-52(s0)
    80000bae:	fbe1                	bnez	a5,80000b7e <memmove+0x70>
    80000bb0:	a805                	j	80000be0 <memmove+0xd2>
    80000bb2:	fe843703          	ld	a4,-24(s0)
    80000bb6:	00170793          	addi	a5,a4,1
    80000bba:	fef43423          	sd	a5,-24(s0)
    80000bbe:	fe043783          	ld	a5,-32(s0)
    80000bc2:	00178693          	addi	a3,a5,1
    80000bc6:	fed43023          	sd	a3,-32(s0)
    80000bca:	00074703          	lbu	a4,0(a4)
    80000bce:	00e78023          	sb	a4,0(a5)
    80000bd2:	fcc42783          	lw	a5,-52(s0)
    80000bd6:	fff7871b          	addiw	a4,a5,-1
    80000bda:	fce42623          	sw	a4,-52(s0)
    80000bde:	fbf1                	bnez	a5,80000bb2 <memmove+0xa4>
    80000be0:	fd843783          	ld	a5,-40(s0)
    80000be4:	853e                	mv	a0,a5
    80000be6:	70e2                	ld	ra,56(sp)
    80000be8:	7442                	ld	s0,48(sp)
    80000bea:	6121                	addi	sp,sp,64
    80000bec:	8082                	ret

0000000080000bee <memcpy>:
    80000bee:	7179                	addi	sp,sp,-48
    80000bf0:	f406                	sd	ra,40(sp)
    80000bf2:	f022                	sd	s0,32(sp)
    80000bf4:	1800                	addi	s0,sp,48
    80000bf6:	fea43423          	sd	a0,-24(s0)
    80000bfa:	feb43023          	sd	a1,-32(s0)
    80000bfe:	87b2                	mv	a5,a2
    80000c00:	fcf42e23          	sw	a5,-36(s0)
    80000c04:	fdc42783          	lw	a5,-36(s0)
    80000c08:	863e                	mv	a2,a5
    80000c0a:	fe043583          	ld	a1,-32(s0)
    80000c0e:	fe843503          	ld	a0,-24(s0)
    80000c12:	00000097          	auipc	ra,0x0
    80000c16:	efc080e7          	jalr	-260(ra) # 80000b0e <memmove>
    80000c1a:	87aa                	mv	a5,a0
    80000c1c:	853e                	mv	a0,a5
    80000c1e:	70a2                	ld	ra,40(sp)
    80000c20:	7402                	ld	s0,32(sp)
    80000c22:	6145                	addi	sp,sp,48
    80000c24:	8082                	ret

0000000080000c26 <strncmp>:
    80000c26:	7179                	addi	sp,sp,-48
    80000c28:	f406                	sd	ra,40(sp)
    80000c2a:	f022                	sd	s0,32(sp)
    80000c2c:	1800                	addi	s0,sp,48
    80000c2e:	fea43423          	sd	a0,-24(s0)
    80000c32:	feb43023          	sd	a1,-32(s0)
    80000c36:	87b2                	mv	a5,a2
    80000c38:	fcf42e23          	sw	a5,-36(s0)
    80000c3c:	a005                	j	80000c5c <strncmp+0x36>
    80000c3e:	fdc42783          	lw	a5,-36(s0)
    80000c42:	37fd                	addiw	a5,a5,-1
    80000c44:	fcf42e23          	sw	a5,-36(s0)
    80000c48:	fe843783          	ld	a5,-24(s0)
    80000c4c:	0785                	addi	a5,a5,1
    80000c4e:	fef43423          	sd	a5,-24(s0)
    80000c52:	fe043783          	ld	a5,-32(s0)
    80000c56:	0785                	addi	a5,a5,1
    80000c58:	fef43023          	sd	a5,-32(s0)
    80000c5c:	fdc42783          	lw	a5,-36(s0)
    80000c60:	2781                	sext.w	a5,a5
    80000c62:	c385                	beqz	a5,80000c82 <strncmp+0x5c>
    80000c64:	fe843783          	ld	a5,-24(s0)
    80000c68:	0007c783          	lbu	a5,0(a5)
    80000c6c:	cb99                	beqz	a5,80000c82 <strncmp+0x5c>
    80000c6e:	fe843783          	ld	a5,-24(s0)
    80000c72:	0007c703          	lbu	a4,0(a5)
    80000c76:	fe043783          	ld	a5,-32(s0)
    80000c7a:	0007c783          	lbu	a5,0(a5)
    80000c7e:	fcf700e3          	beq	a4,a5,80000c3e <strncmp+0x18>
    80000c82:	fdc42783          	lw	a5,-36(s0)
    80000c86:	2781                	sext.w	a5,a5
    80000c88:	e399                	bnez	a5,80000c8e <strncmp+0x68>
    80000c8a:	4781                	li	a5,0
    80000c8c:	a839                	j	80000caa <strncmp+0x84>
    80000c8e:	fe843783          	ld	a5,-24(s0)
    80000c92:	0007c783          	lbu	a5,0(a5)
    80000c96:	0007871b          	sext.w	a4,a5
    80000c9a:	fe043783          	ld	a5,-32(s0)
    80000c9e:	0007c783          	lbu	a5,0(a5)
    80000ca2:	2781                	sext.w	a5,a5
    80000ca4:	40f707bb          	subw	a5,a4,a5
    80000ca8:	2781                	sext.w	a5,a5
    80000caa:	853e                	mv	a0,a5
    80000cac:	70a2                	ld	ra,40(sp)
    80000cae:	7402                	ld	s0,32(sp)
    80000cb0:	6145                	addi	sp,sp,48
    80000cb2:	8082                	ret

0000000080000cb4 <strncpy>:
    80000cb4:	7139                	addi	sp,sp,-64
    80000cb6:	fc06                	sd	ra,56(sp)
    80000cb8:	f822                	sd	s0,48(sp)
    80000cba:	0080                	addi	s0,sp,64
    80000cbc:	fca43c23          	sd	a0,-40(s0)
    80000cc0:	fcb43823          	sd	a1,-48(s0)
    80000cc4:	87b2                	mv	a5,a2
    80000cc6:	fcf42623          	sw	a5,-52(s0)
    80000cca:	fd843783          	ld	a5,-40(s0)
    80000cce:	fef43423          	sd	a5,-24(s0)
    80000cd2:	0001                	nop
    80000cd4:	fcc42783          	lw	a5,-52(s0)
    80000cd8:	fff7871b          	addiw	a4,a5,-1
    80000cdc:	fce42623          	sw	a4,-52(s0)
    80000ce0:	02f05e63          	blez	a5,80000d1c <strncpy+0x68>
    80000ce4:	fd043703          	ld	a4,-48(s0)
    80000ce8:	00170793          	addi	a5,a4,1
    80000cec:	fcf43823          	sd	a5,-48(s0)
    80000cf0:	fd843783          	ld	a5,-40(s0)
    80000cf4:	00178693          	addi	a3,a5,1
    80000cf8:	fcd43c23          	sd	a3,-40(s0)
    80000cfc:	00074703          	lbu	a4,0(a4)
    80000d00:	00e78023          	sb	a4,0(a5)
    80000d04:	0007c783          	lbu	a5,0(a5)
    80000d08:	f7f1                	bnez	a5,80000cd4 <strncpy+0x20>
    80000d0a:	a809                	j	80000d1c <strncpy+0x68>
    80000d0c:	fd843783          	ld	a5,-40(s0)
    80000d10:	00178713          	addi	a4,a5,1
    80000d14:	fce43c23          	sd	a4,-40(s0)
    80000d18:	00078023          	sb	zero,0(a5)
    80000d1c:	fcc42783          	lw	a5,-52(s0)
    80000d20:	fff7871b          	addiw	a4,a5,-1
    80000d24:	fce42623          	sw	a4,-52(s0)
    80000d28:	fef042e3          	bgtz	a5,80000d0c <strncpy+0x58>
    80000d2c:	fe843783          	ld	a5,-24(s0)
    80000d30:	853e                	mv	a0,a5
    80000d32:	70e2                	ld	ra,56(sp)
    80000d34:	7442                	ld	s0,48(sp)
    80000d36:	6121                	addi	sp,sp,64
    80000d38:	8082                	ret

0000000080000d3a <safestrcpy>:
    80000d3a:	7139                	addi	sp,sp,-64
    80000d3c:	fc06                	sd	ra,56(sp)
    80000d3e:	f822                	sd	s0,48(sp)
    80000d40:	0080                	addi	s0,sp,64
    80000d42:	fca43c23          	sd	a0,-40(s0)
    80000d46:	fcb43823          	sd	a1,-48(s0)
    80000d4a:	87b2                	mv	a5,a2
    80000d4c:	fcf42623          	sw	a5,-52(s0)
    80000d50:	fd843783          	ld	a5,-40(s0)
    80000d54:	fef43423          	sd	a5,-24(s0)
    80000d58:	fcc42783          	lw	a5,-52(s0)
    80000d5c:	2781                	sext.w	a5,a5
    80000d5e:	00f04563          	bgtz	a5,80000d68 <safestrcpy+0x2e>
    80000d62:	fe843783          	ld	a5,-24(s0)
    80000d66:	a0a9                	j	80000db0 <safestrcpy+0x76>
    80000d68:	0001                	nop
    80000d6a:	fcc42783          	lw	a5,-52(s0)
    80000d6e:	37fd                	addiw	a5,a5,-1
    80000d70:	fcf42623          	sw	a5,-52(s0)
    80000d74:	fcc42783          	lw	a5,-52(s0)
    80000d78:	2781                	sext.w	a5,a5
    80000d7a:	02f05563          	blez	a5,80000da4 <safestrcpy+0x6a>
    80000d7e:	fd043703          	ld	a4,-48(s0)
    80000d82:	00170793          	addi	a5,a4,1
    80000d86:	fcf43823          	sd	a5,-48(s0)
    80000d8a:	fd843783          	ld	a5,-40(s0)
    80000d8e:	00178693          	addi	a3,a5,1
    80000d92:	fcd43c23          	sd	a3,-40(s0)
    80000d96:	00074703          	lbu	a4,0(a4)
    80000d9a:	00e78023          	sb	a4,0(a5)
    80000d9e:	0007c783          	lbu	a5,0(a5)
    80000da2:	f7e1                	bnez	a5,80000d6a <safestrcpy+0x30>
    80000da4:	fd843783          	ld	a5,-40(s0)
    80000da8:	00078023          	sb	zero,0(a5)
    80000dac:	fe843783          	ld	a5,-24(s0)
    80000db0:	853e                	mv	a0,a5
    80000db2:	70e2                	ld	ra,56(sp)
    80000db4:	7442                	ld	s0,48(sp)
    80000db6:	6121                	addi	sp,sp,64
    80000db8:	8082                	ret

0000000080000dba <strlen>:
    80000dba:	7179                	addi	sp,sp,-48
    80000dbc:	f406                	sd	ra,40(sp)
    80000dbe:	f022                	sd	s0,32(sp)
    80000dc0:	1800                	addi	s0,sp,48
    80000dc2:	fca43c23          	sd	a0,-40(s0)
    80000dc6:	fe042623          	sw	zero,-20(s0)
    80000dca:	a031                	j	80000dd6 <strlen+0x1c>
    80000dcc:	fec42783          	lw	a5,-20(s0)
    80000dd0:	2785                	addiw	a5,a5,1
    80000dd2:	fef42623          	sw	a5,-20(s0)
    80000dd6:	fec42783          	lw	a5,-20(s0)
    80000dda:	fd843703          	ld	a4,-40(s0)
    80000dde:	97ba                	add	a5,a5,a4
    80000de0:	0007c783          	lbu	a5,0(a5)
    80000de4:	f7e5                	bnez	a5,80000dcc <strlen+0x12>
    80000de6:	fec42783          	lw	a5,-20(s0)
    80000dea:	853e                	mv	a0,a5
    80000dec:	70a2                	ld	ra,40(sp)
    80000dee:	7402                	ld	s0,32(sp)
    80000df0:	6145                	addi	sp,sp,48
    80000df2:	8082                	ret

0000000080000df4 <printint>:
    80000df4:	7139                	addi	sp,sp,-64
    80000df6:	fc06                	sd	ra,56(sp)
    80000df8:	f822                	sd	s0,48(sp)
    80000dfa:	0080                	addi	s0,sp,64
    80000dfc:	fca43423          	sd	a0,-56(s0)
    80000e00:	87ae                	mv	a5,a1
    80000e02:	8732                	mv	a4,a2
    80000e04:	fcf42223          	sw	a5,-60(s0)
    80000e08:	87ba                	mv	a5,a4
    80000e0a:	fcf42023          	sw	a5,-64(s0)
    80000e0e:	fc042783          	lw	a5,-64(s0)
    80000e12:	2781                	sext.w	a5,a5
    80000e14:	c39d                	beqz	a5,80000e3a <printint+0x46>
    80000e16:	fc843783          	ld	a5,-56(s0)
    80000e1a:	93fd                	srli	a5,a5,0x3f
    80000e1c:	0ff7f793          	zext.b	a5,a5
    80000e20:	fcf42023          	sw	a5,-64(s0)
    80000e24:	fc042783          	lw	a5,-64(s0)
    80000e28:	2781                	sext.w	a5,a5
    80000e2a:	cb81                	beqz	a5,80000e3a <printint+0x46>
    80000e2c:	fc843783          	ld	a5,-56(s0)
    80000e30:	40f007b3          	neg	a5,a5
    80000e34:	fef43023          	sd	a5,-32(s0)
    80000e38:	a029                	j	80000e42 <printint+0x4e>
    80000e3a:	fc843783          	ld	a5,-56(s0)
    80000e3e:	fef43023          	sd	a5,-32(s0)
    80000e42:	fe042623          	sw	zero,-20(s0)
    80000e46:	fc442783          	lw	a5,-60(s0)
    80000e4a:	fe043703          	ld	a4,-32(s0)
    80000e4e:	02f77733          	remu	a4,a4,a5
    80000e52:	fec42783          	lw	a5,-20(s0)
    80000e56:	0017869b          	addiw	a3,a5,1
    80000e5a:	fed42623          	sw	a3,-20(s0)
    80000e5e:	00001697          	auipc	a3,0x1
    80000e62:	27268693          	addi	a3,a3,626 # 800020d0 <digits>
    80000e66:	9736                	add	a4,a4,a3
    80000e68:	00074703          	lbu	a4,0(a4)
    80000e6c:	17c1                	addi	a5,a5,-16
    80000e6e:	97a2                	add	a5,a5,s0
    80000e70:	fee78023          	sb	a4,-32(a5)
    80000e74:	fc442783          	lw	a5,-60(s0)
    80000e78:	fe043703          	ld	a4,-32(s0)
    80000e7c:	02f757b3          	divu	a5,a4,a5
    80000e80:	fef43023          	sd	a5,-32(s0)
    80000e84:	fe043783          	ld	a5,-32(s0)
    80000e88:	ffdd                	bnez	a5,80000e46 <printint+0x52>
    80000e8a:	fc042783          	lw	a5,-64(s0)
    80000e8e:	2781                	sext.w	a5,a5
    80000e90:	cb8d                	beqz	a5,80000ec2 <printint+0xce>
    80000e92:	fec42783          	lw	a5,-20(s0)
    80000e96:	0017871b          	addiw	a4,a5,1
    80000e9a:	fee42623          	sw	a4,-20(s0)
    80000e9e:	17c1                	addi	a5,a5,-16
    80000ea0:	97a2                	add	a5,a5,s0
    80000ea2:	02d00713          	li	a4,45
    80000ea6:	fee78023          	sb	a4,-32(a5)
    80000eaa:	a821                	j	80000ec2 <printint+0xce>
    80000eac:	fec42783          	lw	a5,-20(s0)
    80000eb0:	17c1                	addi	a5,a5,-16
    80000eb2:	97a2                	add	a5,a5,s0
    80000eb4:	fe07c783          	lbu	a5,-32(a5)
    80000eb8:	853e                	mv	a0,a5
    80000eba:	fffff097          	auipc	ra,0xfffff
    80000ebe:	612080e7          	jalr	1554(ra) # 800004cc <consputc>
    80000ec2:	fec42783          	lw	a5,-20(s0)
    80000ec6:	37fd                	addiw	a5,a5,-1
    80000ec8:	fef42623          	sw	a5,-20(s0)
    80000ecc:	fec42783          	lw	a5,-20(s0)
    80000ed0:	2781                	sext.w	a5,a5
    80000ed2:	fc07dde3          	bgez	a5,80000eac <printint+0xb8>
    80000ed6:	0001                	nop
    80000ed8:	0001                	nop
    80000eda:	70e2                	ld	ra,56(sp)
    80000edc:	7442                	ld	s0,48(sp)
    80000ede:	6121                	addi	sp,sp,64
    80000ee0:	8082                	ret

0000000080000ee2 <printptr>:
    80000ee2:	7179                	addi	sp,sp,-48
    80000ee4:	f406                	sd	ra,40(sp)
    80000ee6:	f022                	sd	s0,32(sp)
    80000ee8:	1800                	addi	s0,sp,48
    80000eea:	fca43c23          	sd	a0,-40(s0)
    80000eee:	03000513          	li	a0,48
    80000ef2:	fffff097          	auipc	ra,0xfffff
    80000ef6:	5da080e7          	jalr	1498(ra) # 800004cc <consputc>
    80000efa:	07800513          	li	a0,120
    80000efe:	fffff097          	auipc	ra,0xfffff
    80000f02:	5ce080e7          	jalr	1486(ra) # 800004cc <consputc>
    80000f06:	fe042623          	sw	zero,-20(s0)
    80000f0a:	a815                	j	80000f3e <printptr+0x5c>
    80000f0c:	fd843783          	ld	a5,-40(s0)
    80000f10:	93f1                	srli	a5,a5,0x3c
    80000f12:	00001717          	auipc	a4,0x1
    80000f16:	1be70713          	addi	a4,a4,446 # 800020d0 <digits>
    80000f1a:	97ba                	add	a5,a5,a4
    80000f1c:	0007c783          	lbu	a5,0(a5)
    80000f20:	853e                	mv	a0,a5
    80000f22:	fffff097          	auipc	ra,0xfffff
    80000f26:	5aa080e7          	jalr	1450(ra) # 800004cc <consputc>
    80000f2a:	fec42783          	lw	a5,-20(s0)
    80000f2e:	2785                	addiw	a5,a5,1
    80000f30:	fef42623          	sw	a5,-20(s0)
    80000f34:	fd843783          	ld	a5,-40(s0)
    80000f38:	0792                	slli	a5,a5,0x4
    80000f3a:	fcf43c23          	sd	a5,-40(s0)
    80000f3e:	fec42703          	lw	a4,-20(s0)
    80000f42:	47bd                	li	a5,15
    80000f44:	fce7f4e3          	bgeu	a5,a4,80000f0c <printptr+0x2a>
    80000f48:	0001                	nop
    80000f4a:	0001                	nop
    80000f4c:	70a2                	ld	ra,40(sp)
    80000f4e:	7402                	ld	s0,32(sp)
    80000f50:	6145                	addi	sp,sp,48
    80000f52:	8082                	ret

0000000080000f54 <printf>:
    80000f54:	7175                	addi	sp,sp,-144
    80000f56:	e486                	sd	ra,72(sp)
    80000f58:	e0a2                	sd	s0,64(sp)
    80000f5a:	0880                	addi	s0,sp,80
    80000f5c:	faa43c23          	sd	a0,-72(s0)
    80000f60:	e40c                	sd	a1,8(s0)
    80000f62:	e810                	sd	a2,16(s0)
    80000f64:	ec14                	sd	a3,24(s0)
    80000f66:	f018                	sd	a4,32(s0)
    80000f68:	f41c                	sd	a5,40(s0)
    80000f6a:	03043823          	sd	a6,48(s0)
    80000f6e:	03143c23          	sd	a7,56(s0)
    80000f72:	04040793          	addi	a5,s0,64
    80000f76:	faf43823          	sd	a5,-80(s0)
    80000f7a:	fb043783          	ld	a5,-80(s0)
    80000f7e:	fc878793          	addi	a5,a5,-56
    80000f82:	fcf43423          	sd	a5,-56(s0)
    80000f86:	fe042623          	sw	zero,-20(s0)
    80000f8a:	a6d9                	j	80001350 <printf+0x3fc>
    80000f8c:	fd442783          	lw	a5,-44(s0)
    80000f90:	0007871b          	sext.w	a4,a5
    80000f94:	02500793          	li	a5,37
    80000f98:	00f70c63          	beq	a4,a5,80000fb0 <printf+0x5c>
    80000f9c:	fd442783          	lw	a5,-44(s0)
    80000fa0:	0ff7f793          	zext.b	a5,a5
    80000fa4:	853e                	mv	a0,a5
    80000fa6:	fffff097          	auipc	ra,0xfffff
    80000faa:	526080e7          	jalr	1318(ra) # 800004cc <consputc>
    80000fae:	ae61                	j	80001346 <printf+0x3f2>
    80000fb0:	fec42783          	lw	a5,-20(s0)
    80000fb4:	2785                	addiw	a5,a5,1
    80000fb6:	fef42623          	sw	a5,-20(s0)
    80000fba:	fec42783          	lw	a5,-20(s0)
    80000fbe:	fb843703          	ld	a4,-72(s0)
    80000fc2:	97ba                	add	a5,a5,a4
    80000fc4:	0007c783          	lbu	a5,0(a5)
    80000fc8:	fcf42823          	sw	a5,-48(s0)
    80000fcc:	fe042223          	sw	zero,-28(s0)
    80000fd0:	fe442783          	lw	a5,-28(s0)
    80000fd4:	fef42423          	sw	a5,-24(s0)
    80000fd8:	fd042783          	lw	a5,-48(s0)
    80000fdc:	2781                	sext.w	a5,a5
    80000fde:	cb99                	beqz	a5,80000ff4 <printf+0xa0>
    80000fe0:	fec42783          	lw	a5,-20(s0)
    80000fe4:	0785                	addi	a5,a5,1
    80000fe6:	fb843703          	ld	a4,-72(s0)
    80000fea:	97ba                	add	a5,a5,a4
    80000fec:	0007c783          	lbu	a5,0(a5)
    80000ff0:	fef42423          	sw	a5,-24(s0)
    80000ff4:	fe842783          	lw	a5,-24(s0)
    80000ff8:	2781                	sext.w	a5,a5
    80000ffa:	cb99                	beqz	a5,80001010 <printf+0xbc>
    80000ffc:	fec42783          	lw	a5,-20(s0)
    80001000:	0789                	addi	a5,a5,2
    80001002:	fb843703          	ld	a4,-72(s0)
    80001006:	97ba                	add	a5,a5,a4
    80001008:	0007c783          	lbu	a5,0(a5)
    8000100c:	fef42223          	sw	a5,-28(s0)
    80001010:	fd042783          	lw	a5,-48(s0)
    80001014:	0007871b          	sext.w	a4,a5
    80001018:	06400793          	li	a5,100
    8000101c:	02f71163          	bne	a4,a5,8000103e <printf+0xea>
    80001020:	fc843783          	ld	a5,-56(s0)
    80001024:	00878713          	addi	a4,a5,8
    80001028:	fce43423          	sd	a4,-56(s0)
    8000102c:	439c                	lw	a5,0(a5)
    8000102e:	4605                	li	a2,1
    80001030:	45a9                	li	a1,10
    80001032:	853e                	mv	a0,a5
    80001034:	00000097          	auipc	ra,0x0
    80001038:	dc0080e7          	jalr	-576(ra) # 80000df4 <printint>
    8000103c:	a629                	j	80001346 <printf+0x3f2>
    8000103e:	fd042783          	lw	a5,-48(s0)
    80001042:	0007871b          	sext.w	a4,a5
    80001046:	06c00793          	li	a5,108
    8000104a:	02f71e63          	bne	a4,a5,80001086 <printf+0x132>
    8000104e:	fe842783          	lw	a5,-24(s0)
    80001052:	0007871b          	sext.w	a4,a5
    80001056:	06400793          	li	a5,100
    8000105a:	02f71663          	bne	a4,a5,80001086 <printf+0x132>
    8000105e:	fc843783          	ld	a5,-56(s0)
    80001062:	00878713          	addi	a4,a5,8
    80001066:	fce43423          	sd	a4,-56(s0)
    8000106a:	639c                	ld	a5,0(a5)
    8000106c:	4605                	li	a2,1
    8000106e:	45a9                	li	a1,10
    80001070:	853e                	mv	a0,a5
    80001072:	00000097          	auipc	ra,0x0
    80001076:	d82080e7          	jalr	-638(ra) # 80000df4 <printint>
    8000107a:	fec42783          	lw	a5,-20(s0)
    8000107e:	2785                	addiw	a5,a5,1
    80001080:	fef42623          	sw	a5,-20(s0)
    80001084:	a4c9                	j	80001346 <printf+0x3f2>
    80001086:	fd042783          	lw	a5,-48(s0)
    8000108a:	0007871b          	sext.w	a4,a5
    8000108e:	06c00793          	li	a5,108
    80001092:	04f71663          	bne	a4,a5,800010de <printf+0x18a>
    80001096:	fe842783          	lw	a5,-24(s0)
    8000109a:	0007871b          	sext.w	a4,a5
    8000109e:	06c00793          	li	a5,108
    800010a2:	02f71e63          	bne	a4,a5,800010de <printf+0x18a>
    800010a6:	fe442783          	lw	a5,-28(s0)
    800010aa:	0007871b          	sext.w	a4,a5
    800010ae:	06400793          	li	a5,100
    800010b2:	02f71663          	bne	a4,a5,800010de <printf+0x18a>
    800010b6:	fc843783          	ld	a5,-56(s0)
    800010ba:	00878713          	addi	a4,a5,8
    800010be:	fce43423          	sd	a4,-56(s0)
    800010c2:	639c                	ld	a5,0(a5)
    800010c4:	4605                	li	a2,1
    800010c6:	45a9                	li	a1,10
    800010c8:	853e                	mv	a0,a5
    800010ca:	00000097          	auipc	ra,0x0
    800010ce:	d2a080e7          	jalr	-726(ra) # 80000df4 <printint>
    800010d2:	fec42783          	lw	a5,-20(s0)
    800010d6:	2789                	addiw	a5,a5,2
    800010d8:	fef42623          	sw	a5,-20(s0)
    800010dc:	a4ad                	j	80001346 <printf+0x3f2>
    800010de:	fd042783          	lw	a5,-48(s0)
    800010e2:	0007871b          	sext.w	a4,a5
    800010e6:	07500793          	li	a5,117
    800010ea:	02f71163          	bne	a4,a5,8000110c <printf+0x1b8>
    800010ee:	fc843783          	ld	a5,-56(s0)
    800010f2:	00878713          	addi	a4,a5,8
    800010f6:	fce43423          	sd	a4,-56(s0)
    800010fa:	439c                	lw	a5,0(a5)
    800010fc:	4601                	li	a2,0
    800010fe:	45a9                	li	a1,10
    80001100:	853e                	mv	a0,a5
    80001102:	00000097          	auipc	ra,0x0
    80001106:	cf2080e7          	jalr	-782(ra) # 80000df4 <printint>
    8000110a:	ac35                	j	80001346 <printf+0x3f2>
    8000110c:	fd042783          	lw	a5,-48(s0)
    80001110:	0007871b          	sext.w	a4,a5
    80001114:	06c00793          	li	a5,108
    80001118:	02f71e63          	bne	a4,a5,80001154 <printf+0x200>
    8000111c:	fe842783          	lw	a5,-24(s0)
    80001120:	0007871b          	sext.w	a4,a5
    80001124:	07500793          	li	a5,117
    80001128:	02f71663          	bne	a4,a5,80001154 <printf+0x200>
    8000112c:	fc843783          	ld	a5,-56(s0)
    80001130:	00878713          	addi	a4,a5,8
    80001134:	fce43423          	sd	a4,-56(s0)
    80001138:	639c                	ld	a5,0(a5)
    8000113a:	4601                	li	a2,0
    8000113c:	45a9                	li	a1,10
    8000113e:	853e                	mv	a0,a5
    80001140:	00000097          	auipc	ra,0x0
    80001144:	cb4080e7          	jalr	-844(ra) # 80000df4 <printint>
    80001148:	fec42783          	lw	a5,-20(s0)
    8000114c:	2785                	addiw	a5,a5,1
    8000114e:	fef42623          	sw	a5,-20(s0)
    80001152:	aad5                	j	80001346 <printf+0x3f2>
    80001154:	fd042783          	lw	a5,-48(s0)
    80001158:	0007871b          	sext.w	a4,a5
    8000115c:	06c00793          	li	a5,108
    80001160:	04f71663          	bne	a4,a5,800011ac <printf+0x258>
    80001164:	fe842783          	lw	a5,-24(s0)
    80001168:	0007871b          	sext.w	a4,a5
    8000116c:	06c00793          	li	a5,108
    80001170:	02f71e63          	bne	a4,a5,800011ac <printf+0x258>
    80001174:	fe442783          	lw	a5,-28(s0)
    80001178:	0007871b          	sext.w	a4,a5
    8000117c:	07500793          	li	a5,117
    80001180:	02f71663          	bne	a4,a5,800011ac <printf+0x258>
    80001184:	fc843783          	ld	a5,-56(s0)
    80001188:	00878713          	addi	a4,a5,8
    8000118c:	fce43423          	sd	a4,-56(s0)
    80001190:	639c                	ld	a5,0(a5)
    80001192:	4601                	li	a2,0
    80001194:	45a9                	li	a1,10
    80001196:	853e                	mv	a0,a5
    80001198:	00000097          	auipc	ra,0x0
    8000119c:	c5c080e7          	jalr	-932(ra) # 80000df4 <printint>
    800011a0:	fec42783          	lw	a5,-20(s0)
    800011a4:	2789                	addiw	a5,a5,2
    800011a6:	fef42623          	sw	a5,-20(s0)
    800011aa:	aa71                	j	80001346 <printf+0x3f2>
    800011ac:	fd042783          	lw	a5,-48(s0)
    800011b0:	0007871b          	sext.w	a4,a5
    800011b4:	07800793          	li	a5,120
    800011b8:	02f71163          	bne	a4,a5,800011da <printf+0x286>
    800011bc:	fc843783          	ld	a5,-56(s0)
    800011c0:	00878713          	addi	a4,a5,8
    800011c4:	fce43423          	sd	a4,-56(s0)
    800011c8:	439c                	lw	a5,0(a5)
    800011ca:	4601                	li	a2,0
    800011cc:	45c1                	li	a1,16
    800011ce:	853e                	mv	a0,a5
    800011d0:	00000097          	auipc	ra,0x0
    800011d4:	c24080e7          	jalr	-988(ra) # 80000df4 <printint>
    800011d8:	a2bd                	j	80001346 <printf+0x3f2>
    800011da:	fd042783          	lw	a5,-48(s0)
    800011de:	0007871b          	sext.w	a4,a5
    800011e2:	06c00793          	li	a5,108
    800011e6:	02f71e63          	bne	a4,a5,80001222 <printf+0x2ce>
    800011ea:	fe842783          	lw	a5,-24(s0)
    800011ee:	0007871b          	sext.w	a4,a5
    800011f2:	07800793          	li	a5,120
    800011f6:	02f71663          	bne	a4,a5,80001222 <printf+0x2ce>
    800011fa:	fc843783          	ld	a5,-56(s0)
    800011fe:	00878713          	addi	a4,a5,8
    80001202:	fce43423          	sd	a4,-56(s0)
    80001206:	639c                	ld	a5,0(a5)
    80001208:	4601                	li	a2,0
    8000120a:	45c1                	li	a1,16
    8000120c:	853e                	mv	a0,a5
    8000120e:	00000097          	auipc	ra,0x0
    80001212:	be6080e7          	jalr	-1050(ra) # 80000df4 <printint>
    80001216:	fec42783          	lw	a5,-20(s0)
    8000121a:	2785                	addiw	a5,a5,1
    8000121c:	fef42623          	sw	a5,-20(s0)
    80001220:	a21d                	j	80001346 <printf+0x3f2>
    80001222:	fd042783          	lw	a5,-48(s0)
    80001226:	0007871b          	sext.w	a4,a5
    8000122a:	06c00793          	li	a5,108
    8000122e:	04f71663          	bne	a4,a5,8000127a <printf+0x326>
    80001232:	fe842783          	lw	a5,-24(s0)
    80001236:	0007871b          	sext.w	a4,a5
    8000123a:	06c00793          	li	a5,108
    8000123e:	02f71e63          	bne	a4,a5,8000127a <printf+0x326>
    80001242:	fe442783          	lw	a5,-28(s0)
    80001246:	0007871b          	sext.w	a4,a5
    8000124a:	07800793          	li	a5,120
    8000124e:	02f71663          	bne	a4,a5,8000127a <printf+0x326>
    80001252:	fc843783          	ld	a5,-56(s0)
    80001256:	00878713          	addi	a4,a5,8
    8000125a:	fce43423          	sd	a4,-56(s0)
    8000125e:	639c                	ld	a5,0(a5)
    80001260:	4601                	li	a2,0
    80001262:	45c1                	li	a1,16
    80001264:	853e                	mv	a0,a5
    80001266:	00000097          	auipc	ra,0x0
    8000126a:	b8e080e7          	jalr	-1138(ra) # 80000df4 <printint>
    8000126e:	fec42783          	lw	a5,-20(s0)
    80001272:	2789                	addiw	a5,a5,2
    80001274:	fef42623          	sw	a5,-20(s0)
    80001278:	a0f9                	j	80001346 <printf+0x3f2>
    8000127a:	fd042783          	lw	a5,-48(s0)
    8000127e:	0007871b          	sext.w	a4,a5
    80001282:	07000793          	li	a5,112
    80001286:	00f71f63          	bne	a4,a5,800012a4 <printf+0x350>
    8000128a:	fc843783          	ld	a5,-56(s0)
    8000128e:	00878713          	addi	a4,a5,8
    80001292:	fce43423          	sd	a4,-56(s0)
    80001296:	639c                	ld	a5,0(a5)
    80001298:	853e                	mv	a0,a5
    8000129a:	00000097          	auipc	ra,0x0
    8000129e:	c48080e7          	jalr	-952(ra) # 80000ee2 <printptr>
    800012a2:	a055                	j	80001346 <printf+0x3f2>
    800012a4:	fd042783          	lw	a5,-48(s0)
    800012a8:	0007871b          	sext.w	a4,a5
    800012ac:	07300793          	li	a5,115
    800012b0:	04f71963          	bne	a4,a5,80001302 <printf+0x3ae>
    800012b4:	fc843783          	ld	a5,-56(s0)
    800012b8:	00878713          	addi	a4,a5,8
    800012bc:	fce43423          	sd	a4,-56(s0)
    800012c0:	639c                	ld	a5,0(a5)
    800012c2:	fcf43c23          	sd	a5,-40(s0)
    800012c6:	fd843783          	ld	a5,-40(s0)
    800012ca:	e795                	bnez	a5,800012f6 <printf+0x3a2>
    800012cc:	00001797          	auipc	a5,0x1
    800012d0:	dec78793          	addi	a5,a5,-532 # 800020b8 <_trampoline+0xb8>
    800012d4:	fcf43c23          	sd	a5,-40(s0)
    800012d8:	a839                	j	800012f6 <printf+0x3a2>
    800012da:	fd843783          	ld	a5,-40(s0)
    800012de:	0007c783          	lbu	a5,0(a5)
    800012e2:	853e                	mv	a0,a5
    800012e4:	fffff097          	auipc	ra,0xfffff
    800012e8:	1e8080e7          	jalr	488(ra) # 800004cc <consputc>
    800012ec:	fd843783          	ld	a5,-40(s0)
    800012f0:	0785                	addi	a5,a5,1
    800012f2:	fcf43c23          	sd	a5,-40(s0)
    800012f6:	fd843783          	ld	a5,-40(s0)
    800012fa:	0007c783          	lbu	a5,0(a5)
    800012fe:	fff1                	bnez	a5,800012da <printf+0x386>
    80001300:	a099                	j	80001346 <printf+0x3f2>
    80001302:	fd042783          	lw	a5,-48(s0)
    80001306:	0007871b          	sext.w	a4,a5
    8000130a:	02500793          	li	a5,37
    8000130e:	00f71963          	bne	a4,a5,80001320 <printf+0x3cc>
    80001312:	02500513          	li	a0,37
    80001316:	fffff097          	auipc	ra,0xfffff
    8000131a:	1b6080e7          	jalr	438(ra) # 800004cc <consputc>
    8000131e:	a025                	j	80001346 <printf+0x3f2>
    80001320:	fd042783          	lw	a5,-48(s0)
    80001324:	2781                	sext.w	a5,a5
    80001326:	c7a1                	beqz	a5,8000136e <printf+0x41a>
    80001328:	02500513          	li	a0,37
    8000132c:	fffff097          	auipc	ra,0xfffff
    80001330:	1a0080e7          	jalr	416(ra) # 800004cc <consputc>
    80001334:	fd042783          	lw	a5,-48(s0)
    80001338:	0ff7f793          	zext.b	a5,a5
    8000133c:	853e                	mv	a0,a5
    8000133e:	fffff097          	auipc	ra,0xfffff
    80001342:	18e080e7          	jalr	398(ra) # 800004cc <consputc>
    80001346:	fec42783          	lw	a5,-20(s0)
    8000134a:	2785                	addiw	a5,a5,1
    8000134c:	fef42623          	sw	a5,-20(s0)
    80001350:	fec42783          	lw	a5,-20(s0)
    80001354:	fb843703          	ld	a4,-72(s0)
    80001358:	97ba                	add	a5,a5,a4
    8000135a:	0007c783          	lbu	a5,0(a5)
    8000135e:	fcf42a23          	sw	a5,-44(s0)
    80001362:	fd442783          	lw	a5,-44(s0)
    80001366:	2781                	sext.w	a5,a5
    80001368:	c20792e3          	bnez	a5,80000f8c <printf+0x38>
    8000136c:	a011                	j	80001370 <printf+0x41c>
    8000136e:	0001                	nop
    80001370:	4781                	li	a5,0
    80001372:	853e                	mv	a0,a5
    80001374:	60a6                	ld	ra,72(sp)
    80001376:	6406                	ld	s0,64(sp)
    80001378:	6149                	addi	sp,sp,144
    8000137a:	8082                	ret

000000008000137c <panic>:
    8000137c:	1101                	addi	sp,sp,-32
    8000137e:	ec06                	sd	ra,24(sp)
    80001380:	e822                	sd	s0,16(sp)
    80001382:	1000                	addi	s0,sp,32
    80001384:	fea43423          	sd	a0,-24(s0)
    80001388:	00009797          	auipc	a5,0x9
    8000138c:	eb878793          	addi	a5,a5,-328 # 8000a240 <pr>
    80001390:	0007a023          	sw	zero,0(a5)
    80001394:	00001517          	auipc	a0,0x1
    80001398:	d2c50513          	addi	a0,a0,-724 # 800020c0 <_trampoline+0xc0>
    8000139c:	00000097          	auipc	ra,0x0
    800013a0:	bb8080e7          	jalr	-1096(ra) # 80000f54 <printf>
    800013a4:	fe843583          	ld	a1,-24(s0)
    800013a8:	00001517          	auipc	a0,0x1
    800013ac:	d2050513          	addi	a0,a0,-736 # 800020c8 <_trampoline+0xc8>
    800013b0:	00000097          	auipc	ra,0x0
    800013b4:	ba4080e7          	jalr	-1116(ra) # 80000f54 <printf>
    800013b8:	00001797          	auipc	a5,0x1
    800013bc:	d4078793          	addi	a5,a5,-704 # 800020f8 <panicked>
    800013c0:	4705                	li	a4,1
    800013c2:	c398                	sw	a4,0(a5)
    800013c4:	0001                	nop
    800013c6:	bffd                	j	800013c4 <panic+0x48>

00000000800013c8 <printfinit>:
    800013c8:	1141                	addi	sp,sp,-16
    800013ca:	e406                	sd	ra,8(sp)
    800013cc:	e022                	sd	s0,0(sp)
    800013ce:	0800                	addi	s0,sp,16
    800013d0:	00009797          	auipc	a5,0x9
    800013d4:	e7078793          	addi	a5,a5,-400 # 8000a240 <pr>
    800013d8:	4705                	li	a4,1
    800013da:	c398                	sw	a4,0(a5)
    800013dc:	0001                	nop
    800013de:	60a2                	ld	ra,8(sp)
    800013e0:	6402                	ld	s0,0(sp)
    800013e2:	0141                	addi	sp,sp,16
    800013e4:	8082                	ret
	...
